(lp0
(I0
I44
I32
I96
tp1
a(I40
I108
I56
I124
tp2
a(I0
I108
I36
I124
tp3
a(I12
I96
I44
I124
tp4
a(I28
I84
I60
I120
tp5
a(I8
I92
I48
I108
tp6
a(I16
I96
I48
I120
tp7
a(I36
I60
I60
I96
tp8
a(I4
I72
I48
I100
tp9
a(I28
I84
I48
I108
tp10
a(I12
I64
I52
I108
tp11
a(I28
I88
I60
I104
tp12
a(I44
I108
I60
I124
tp13
a(I32
I16
I52
I32
tp14
a(I24
I64
I48
I120
tp15
a(I36
I52
I52
I76
tp16
a(I0
I40
I28
I96
tp17
a(I4
I0
I48
I96
tp18
a(I4
I20
I44
I104
tp19
a(I36
I96
I56
I116
tp20
a(I12
I4
I52
I80
tp21
a(I4
I48
I20
I96
tp22
a(I36
I80
I52
I124
tp23
a(I16
I84
I32
I124
tp24
a(I32
I32
I48
I124
tp25
a(I8
I68
I28
I116
tp26
a(I0
I60
I24
I92
tp27
a(I32
I44
I60
I80
tp28
a(I0
I36
I56
I68
tp29
a(I40
I4
I56
I104
tp30
a(I28
I28
I60
I88
tp31
a(I16
I28
I56
I72
tp32
a(I44
I40
I60
I100
tp33
a(I8
I100
I36
I124
tp34
a(I8
I72
I40
I112
tp35
a(I24
I92
I52
I116
tp36
a(I20
I84
I44
I120
tp37
a(I40
I96
I56
I112
tp38
a(I36
I100
I60
I124
tp39
a(I32
I84
I48
I108
tp40
a(I0
I44
I36
I76
tp41
a(I44
I40
I60
I60
tp42
a(I4
I28
I28
I72
tp43
a(I8
I24
I36
I40
tp44
a(I28
I48
I56
I100
tp45
a(I16
I64
I40
I108
tp46
a(I28
I52
I60
I84
tp47
a(I24
I92
I48
I124
tp48
a(I12
I40
I40
I100
tp49
a(I16
I60
I48
I76
tp50
a(I8
I44
I28
I60
tp51
a(I24
I48
I60
I84
tp52
a(I8
I28
I52
I100
tp53
a(I24
I4
I44
I108
tp54
a(I12
I48
I40
I80
tp55
a(I32
I100
I56
I120
tp56
a(I8
I36
I56
I68
tp57
a(I0
I108
I28
I124
tp58
a(I8
I108
I52
I124
tp59
a(I4
I84
I24
I124
tp60
a(I0
I16
I16
I108
tp61
a(I12
I100
I48
I116
tp62
a(I8
I0
I36
I44
tp63
a(I32
I96
I60
I116
tp64
a(I28
I60
I60
I112
tp65
a(I40
I12
I56
I56
tp66
a(I28
I92
I48
I112
tp67
a(I36
I16
I52
I108
tp68
a(I40
I0
I60
I52
tp69
a(I44
I60
I60
I112
tp70
a(I28
I48
I56
I108
tp71
a(I44
I28
I60
I68
tp72
a(I8
I80
I56
I96
tp73
a(I32
I48
I48
I68
tp74
a(I12
I76
I28
I104
tp75
a(I16
I100
I40
I120
tp76
a(I4
I76
I48
I92
tp77
a(I36
I60
I56
I96
tp78
a(I20
I48
I60
I100
tp79
a(I12
I40
I44
I56
tp80
a(I0
I0
I56
I84
tp81
a(I16
I4
I32
I96
tp82
a(I8
I60
I28
I80
tp83
a(I36
I72
I60
I108
tp84
a(I0
I68
I44
I96
tp85
a(I44
I16
I60
I100
tp86
a(I16
I68
I32
I116
tp87
a(I16
I56
I44
I88
tp88
a(I32
I48
I56
I112
tp89
a(I16
I60
I40
I100
tp90
a(I16
I56
I40
I104
tp91
a(I12
I100
I60
I116
tp92
a(I0
I28
I32
I48
tp93
a(I8
I76
I32
I112
tp94
a(I40
I32
I56
I116
tp95
a(I16
I24
I32
I40
tp96
a(I8
I64
I24
I120
tp97
a(I20
I100
I48
I120
tp98
a(I12
I20
I60
I72
tp99
a(I4
I104
I40
I124
tp100
a(I32
I16
I52
I48
tp101
a(I8
I12
I40
I32
tp102
a(I32
I108
I48
I124
tp103
a(I0
I24
I16
I120
tp104
a(I20
I56
I52
I104
tp105
a(I16
I92
I36
I108
tp106
a(I28
I68
I52
I124
tp107
a(I44
I40
I60
I120
tp108
a(I32
I24
I60
I84
tp109
a(I36
I76
I60
I108
tp110
a(I28
I56
I44
I108
tp111
a(I20
I12
I52
I40
tp112
a(I36
I52
I52
I120
tp113
a(I16
I24
I32
I96
tp114
a(I16
I76
I48
I104
tp115
a(I44
I0
I60
I100
tp116
a(I24
I12
I40
I64
tp117
a(I8
I0
I40
I44
tp118
a(I32
I100
I48
I116
tp119
a(I0
I16
I44
I56
tp120
a(I36
I0
I60
I36
tp121
a(I20
I76
I36
I124
tp122
a(I44
I84
I60
I116
tp123
a(I36
I8
I56
I36
tp124
a(I12
I20
I32
I56
tp125
a(I28
I48
I48
I76
tp126
a(I0
I72
I44
I92
tp127
a(I24
I40
I40
I76
tp128
a(I44
I20
I60
I60
tp129
a(I28
I32
I52
I92
tp130
a(I24
I24
I52
I100
tp131
a(I32
I36
I56
I112
tp132
a(I0
I80
I56
I96
tp133
a(I44
I64
I60
I108
tp134
a(I28
I100
I48
I124
tp135
a(I24
I8
I52
I96
tp136
a(I8
I52
I24
I76
tp137
a(I36
I52
I52
I76
tp138
a(I28
I108
I52
I124
tp139
a(I8
I32
I32
I108
tp140
a(I40
I16
I56
I120
tp141
a(I12
I28
I40
I116
tp142
a(I40
I96
I60
I120
tp143
a(I20
I108
I44
I124
tp144
a(I20
I16
I52
I100
tp145
a(I24
I100
I48
I116
tp146
a(I28
I36
I60
I120
tp147
a(I28
I12
I60
I104
tp148
a(I16
I8
I60
I124
tp149
a(I24
I52
I52
I72
tp150
a(I4
I40
I20
I96
tp151
a(I8
I104
I44
I120
tp152
a(I44
I80
I60
I120
tp153
a(I32
I76
I56
I124
tp154
a(I4
I84
I48
I100
tp155
a(I4
I24
I36
I68
tp156
a(I36
I4
I52
I100
tp157
a(I32
I64
I56
I92
tp158
a(I28
I96
I44
I124
tp159
a(I0
I92
I60
I112
tp160
a(I36
I68
I56
I112
tp161
a(I0
I84
I56
I112
tp162
a(I12
I92
I52
I124
tp163
a(I36
I76
I56
I100
tp164
a(I36
I28
I60
I64
tp165
a(I16
I0
I48
I20
tp166
a(I4
I44
I24
I60
tp167
a(I4
I28
I44
I52
tp168
a(I20
I32
I56
I80
tp169
a(I32
I56
I52
I92
tp170
a(I28
I84
I48
I116
tp171
a(I28
I96
I56
I124
tp172
a(I0
I60
I40
I124
tp173
a(I44
I68
I60
I108
tp174
a(I40
I28
I60
I64
tp175
a(I8
I84
I52
I104
tp176
a(I20
I84
I60
I104
tp177
a(I24
I84
I60
I116
tp178
a(I36
I40
I60
I96
tp179
a(I28
I24
I44
I80
tp180
a(I8
I84
I56
I124
tp181
a(I16
I0
I56
I56
tp182
a(I16
I68
I48
I96
tp183
a(I40
I60
I60
I124
tp184
a(I4
I84
I44
I100
tp185
a(I24
I16
I44
I84
tp186
a(I20
I24
I40
I88
tp187
a(I40
I96
I56
I112
tp188
a(I0
I72
I56
I120
tp189
a(I32
I88
I52
I104
tp190
a(I20
I40
I52
I76
tp191
a(I24
I8
I60
I44
tp192
a(I4
I28
I24
I56
tp193
a(I32
I36
I48
I64
tp194
a(I32
I92
I60
I124
tp195
a(I16
I68
I32
I96
tp196
a(I0
I84
I56
I124
tp197
a(I8
I60
I44
I80
tp198
a(I28
I44
I60
I60
tp199
a(I24
I36
I56
I120
tp200
a(I4
I108
I44
I124
tp201
a(I40
I80
I60
I96
tp202
a(I8
I72
I24
I104
tp203
a(I16
I12
I36
I72
tp204
a(I16
I24
I52
I84
tp205
a(I20
I24
I48
I100
tp206
a(I4
I12
I44
I28
tp207
a(I0
I48
I32
I96
tp208
a(I12
I52
I36
I116
tp209
a(I0
I56
I60
I92
tp210
a(I16
I88
I56
I120
tp211
a(I8
I44
I44
I72
tp212
a(I44
I92
I60
I120
tp213
a(I8
I108
I36
I124
tp214
a(I16
I84
I44
I116
tp215
a(I0
I4
I52
I120
tp216
a(I36
I88
I60
I124
tp217
a(I24
I0
I52
I16
tp218
a(I8
I76
I60
I120
tp219
a(I12
I84
I28
I104
tp220
a(I12
I80
I40
I120
tp221
a(I28
I32
I44
I120
tp222
a(I16
I92
I56
I124
tp223
a(I24
I36
I40
I60
tp224
a(I8
I72
I28
I96
tp225
a(I32
I88
I56
I108
tp226
a(I0
I68
I36
I116
tp227
a(I8
I12
I44
I64
tp228
a(I44
I32
I60
I48
tp229
a(I12
I36
I40
I60
tp230
a(I28
I68
I60
I108
tp231
a(I40
I92
I56
I124
tp232
a(I20
I96
I36
I112
tp233
a(I40
I44
I56
I124
tp234
a(I36
I32
I60
I96
tp235
a(I20
I48
I44
I68
tp236
a(I28
I76
I56
I104
tp237
a(I16
I20
I44
I112
tp238
a(I32
I100
I60
I116
tp239
a(I0
I104
I24
I124
tp240
a(I28
I104
I60
I120
tp241
a(I28
I40
I48
I88
tp242
a(I28
I28
I56
I80
tp243
a(I0
I56
I60
I108
tp244
a(I8
I64
I56
I88
tp245
a(I24
I24
I60
I88
tp246
a(I24
I0
I56
I104
tp247
a(I20
I76
I36
I124
tp248
a(I12
I56
I36
I124
tp249
a(I12
I8
I56
I104
tp250
a(I20
I40
I60
I56
tp251
a(I12
I72
I56
I108
tp252
a(I12
I52
I32
I96
tp253
a(I8
I0
I28
I116
tp254
a(I32
I60
I52
I76
tp255
a(I16
I72
I32
I92
tp256
a(I8
I12
I36
I124
tp257
a(I20
I96
I40
I116
tp258
a(I32
I52
I60
I108
tp259
a(I36
I96
I56
I112
tp260
a(I40
I108
I60
I124
tp261
a(I8
I96
I44
I124
tp262
a(I0
I100
I60
I124
tp263
a(I36
I84
I56
I104
tp264
a(I40
I4
I60
I124
tp265
a(I40
I48
I56
I108
tp266
a(I0
I76
I16
I116
tp267
a(I40
I44
I60
I68
tp268
a(I40
I8
I60
I36
tp269
a(I0
I32
I32
I88
tp270
a(I24
I28
I56
I76
tp271
a(I20
I0
I56
I76
tp272
a(I4
I72
I48
I108
tp273
a(I20
I44
I40
I96
tp274
a(I44
I68
I60
I84
tp275
a(I20
I48
I56
I100
tp276
a(I12
I72
I56
I116
tp277
a(I12
I68
I36
I88
tp278
a(I12
I56
I48
I76
tp279
a(I36
I68
I52
I96
tp280
a(I8
I108
I48
I124
tp281
a(I16
I76
I32
I120
tp282
a(I4
I56
I28
I104
tp283
a(I8
I56
I24
I72
tp284
a(I32
I88
I60
I124
tp285
a(I36
I64
I52
I104
tp286
a(I4
I100
I44
I116
tp287
a(I4
I68
I48
I92
tp288
a(I8
I28
I60
I84
tp289
a(I32
I48
I60
I80
tp290
a(I24
I68
I44
I84
tp291
a(I8
I56
I52
I96
tp292
a(I12
I108
I44
I124
tp293
a(I16
I60
I36
I84
tp294
a(I24
I48
I60
I100
tp295
a(I12
I40
I36
I124
tp296
a(I32
I104
I56
I120
tp297
a(I28
I0
I52
I44
tp298
a(I36
I64
I60
I88
tp299
a(I8
I72
I32
I120
tp300
a(I44
I0
I60
I64
tp301
a(I0
I36
I52
I108
tp302
a(I36
I100
I56
I124
tp303
a(I4
I56
I40
I96
tp304
a(I8
I36
I40
I60
tp305
a(I12
I92
I32
I120
tp306
a(I32
I12
I52
I56
tp307
a(I28
I12
I48
I104
tp308
a(I12
I44
I32
I68
tp309
a(I4
I88
I36
I124
tp310
a(I20
I80
I36
I124
tp311
a(I8
I100
I36
I124
tp312
a(I16
I56
I48
I92
tp313
a(I20
I108
I56
I124
tp314
a(I4
I8
I52
I96
tp315
a(I44
I44
I60
I76
tp316
a(I16
I96
I56
I120
tp317
a(I32
I8
I60
I112
tp318
a(I36
I104
I52
I120
tp319
a(I16
I96
I52
I116
tp320
a(I20
I68
I44
I120
tp321
a(I8
I60
I44
I108
tp322
a(I20
I96
I60
I112
tp323
a(I12
I104
I56
I120
tp324
a(I24
I4
I48
I124
tp325
a(I20
I16
I56
I44
tp326
a(I4
I68
I60
I116
tp327
a(I44
I16
I60
I92
tp328
a(I32
I68
I48
I124
tp329
a(I28
I100
I52
I116
tp330
a(I20
I88
I52
I112
tp331
a(I8
I72
I56
I116
tp332
a(I44
I56
I60
I100
tp333
a(I24
I108
I48
I124
tp334
a(I8
I76
I44
I96
tp335
a(I20
I92
I44
I116
tp336
a(I16
I56
I32
I76
tp337
a(I12
I96
I28
I112
tp338
a(I36
I48
I60
I120
tp339
a(I4
I20
I20
I96
tp340
a(I44
I96
I60
I124
tp341
a(I36
I52
I56
I80
tp342
a(I0
I24
I36
I84
tp343
a(I16
I52
I40
I104
tp344
a(I36
I72
I60
I112
tp345
a(I28
I36
I48
I112
tp346
a(I44
I44
I60
I112
tp347
a(I28
I44
I48
I116
tp348
a(I8
I100
I40
I120
tp349
a(I44
I76
I60
I96
tp350
a(I40
I84
I60
I124
tp351
a(I20
I76
I48
I124
tp352
a(I16
I48
I56
I76
tp353
a(I36
I64
I60
I84
tp354
a(I4
I48
I24
I68
tp355
a(I20
I16
I52
I44
tp356
a(I16
I12
I60
I124
tp357
a(I44
I8
I60
I100
tp358
a(I28
I80
I52
I96
tp359
a(I4
I80
I40
I96
tp360
a(I28
I16
I56
I108
tp361
a(I8
I104
I28
I120
tp362
a(I24
I60
I60
I80
tp363
a(I0
I48
I32
I100
tp364
a(I40
I84
I60
I120
tp365
a(I20
I96
I44
I112
tp366
a(I28
I64
I48
I96
tp367
a(I4
I0
I44
I120
tp368
a(I40
I56
I56
I80
tp369
a(I32
I108
I48
I124
tp370
a(I36
I48
I56
I92
tp371
a(I28
I28
I52
I92
tp372
a(I28
I40
I60
I108
tp373
a(I16
I44
I32
I76
tp374
a(I20
I96
I40
I120
tp375
a(I36
I20
I56
I56
tp376
a(I32
I48
I48
I76
tp377
a(I28
I36
I52
I124
tp378
a(I8
I92
I32
I108
tp379
a(I0
I100
I16
I120
tp380
a(I40
I68
I60
I84
tp381
a(I40
I100
I56
I120
tp382
a(I28
I60
I60
I116
tp383
a(I16
I100
I56
I120
tp384
a(I44
I64
I60
I104
tp385
a(I40
I20
I56
I96
tp386
a(I4
I44
I40
I112
tp387
a(I40
I0
I56
I40
tp388
a(I36
I48
I56
I80
tp389
a(I20
I96
I60
I112
tp390
a(I4
I24
I20
I92
tp391
a(I44
I44
I60
I72
tp392
a(I0
I68
I60
I88
tp393
a(I20
I32
I52
I88
tp394
a(I36
I12
I60
I92
tp395
a(I12
I64
I56
I108
tp396
a(I16
I96
I40
I116
tp397
a(I4
I12
I36
I36
tp398
a(I24
I8
I44
I92
tp399
a(I16
I108
I36
I124
tp400
a(I20
I24
I48
I64
tp401
a(I36
I68
I52
I112
tp402
a(I40
I32
I60
I112
tp403
a(I44
I32
I60
I120
tp404
a(I16
I20
I32
I104
tp405
a(I40
I76
I56
I120
tp406
a(I40
I32
I56
I60
tp407
a(I16
I36
I44
I64
tp408
a(I24
I28
I60
I64
tp409
a(I32
I84
I56
I104
tp410
a(I28
I36
I60
I76
tp411
a(I44
I36
I60
I92
tp412
a(I20
I80
I52
I108
tp413
a(I36
I76
I52
I96
tp414
a(I0
I76
I24
I100
tp415
a(I24
I28
I52
I120
tp416
a(I32
I24
I56
I72
tp417
a(I8
I4
I40
I88
tp418
a(I24
I48
I48
I92
tp419
a(I28
I80
I44
I124
tp420
a(I28
I16
I48
I44
tp421
a(I4
I108
I32
I124
tp422
a(I4
I12
I44
I52
tp423
a(I32
I72
I52
I100
tp424
a(I40
I96
I60
I116
tp425
a(I0
I44
I52
I64
tp426
a(I44
I80
I60
I100
tp427
a(I20
I16
I40
I36
tp428
a(I32
I12
I48
I88
tp429
a(I44
I64
I60
I116
tp430
a(I12
I52
I56
I68
tp431
a(I24
I40
I60
I100
tp432
a(I16
I80
I60
I112
tp433
a(I4
I12
I60
I76
tp434
a(I20
I104
I52
I120
tp435
a(I44
I52
I60
I120
tp436
a(I16
I12
I36
I104
tp437
a(I24
I108
I60
I124
tp438
a(I8
I48
I44
I96
tp439
a(I20
I64
I56
I80
tp440
a(I32
I8
I48
I52
tp441
a(I12
I60
I60
I76
tp442
a(I36
I32
I52
I84
tp443
a(I20
I92
I52
I108
tp444
a(I32
I96
I60
I124
tp445
a(I4
I60
I52
I108
tp446
a(I32
I96
I52
I124
tp447
a(I16
I24
I52
I40
tp448
a(I28
I20
I44
I88
tp449
a(I20
I20
I44
I48
tp450
a(I24
I108
I40
I124
tp451
a(I36
I80
I52
I120
tp452
a(I24
I24
I40
I112
tp453
a(I36
I12
I56
I32
tp454
a(I4
I80
I32
I96
tp455
a(I4
I28
I24
I64
tp456
a(I36
I48
I52
I116
tp457
a(I28
I76
I48
I104
tp458
a(I12
I36
I56
I88
tp459
a(I12
I68
I56
I124
tp460
a(I44
I108
I60
I124
tp461
a(I40
I44
I60
I108
tp462
a(I44
I8
I60
I84
tp463
a(I36
I56
I56
I116
tp464
a(I24
I84
I44
I112
tp465
a(I24
I24
I56
I88
tp466
a(I36
I100
I56
I124
tp467
a(I4
I0
I48
I96
tp468
a(I12
I4
I40
I76
tp469
a(I28
I28
I48
I96
tp470
a(I36
I48
I56
I84
tp471
a(I40
I100
I60
I124
tp472
a(I8
I28
I32
I44
tp473
a(I24
I16
I60
I48
tp474
a(I24
I104
I40
I124
tp475
a(I28
I20
I44
I80
tp476
a(I36
I56
I56
I84
tp477
a(I16
I68
I36
I92
tp478
a(I4
I0
I28
I116
tp479
a(I12
I60
I28
I108
tp480
a(I4
I40
I32
I104
tp481
a(I40
I108
I60
I124
tp482
a(I28
I56
I60
I108
tp483
a(I28
I32
I48
I84
tp484
a(I32
I68
I48
I104
tp485
a(I0
I92
I28
I108
tp486
a(I40
I12
I56
I104
tp487
a(I4
I32
I40
I80
tp488
a(I32
I48
I52
I108
tp489
a(I0
I44
I36
I68
tp490
a(I8
I76
I44
I108
tp491
a(I16
I36
I40
I92
tp492
a(I40
I40
I56
I120
tp493
a(I28
I76
I48
I120
tp494
a(I16
I96
I32
I116
tp495
a(I24
I44
I60
I104
tp496
a(I44
I56
I60
I124
tp497
a(I28
I0
I56
I40
tp498
a(I44
I0
I60
I96
tp499
a(I24
I24
I44
I76
tp500
a.