(lp0
(I16
I48
I52
I120
I0
tp1
a(I8
I28
I52
I56
I0
tp2
a(I40
I104
I56
I124
I4
tp3
a(I0
I52
I56
I84
I2
tp4
a(I40
I76
I56
I120
I9
tp5
a(I0
I72
I24
I96
I4
tp6
a(I32
I28
I52
I96
I4
tp7
a(I24
I88
I52
I124
I8
tp8
a(I20
I64
I60
I112
I7
tp9
a(I0
I72
I48
I88
I4
tp10
a(I28
I16
I60
I120
I2
tp11
a(I28
I84
I52
I100
I9
tp12
a(I24
I88
I60
I108
I6
tp13
a(I40
I100
I60
I120
I5
tp14
a(I40
I4
I56
I72
I5
tp15
a(I24
I36
I44
I124
I9
tp16
a(I36
I48
I56
I64
I0
tp17
a(I4
I40
I36
I100
I6
tp18
a(I12
I40
I48
I96
I4
tp19
a(I16
I60
I56
I88
I1
tp20
a(I8
I32
I40
I124
I9
tp21
a(I8
I64
I48
I92
I8
tp22
a(I36
I104
I60
I124
I7
tp23
a(I44
I16
I60
I60
I1
tp24
a(I4
I64
I56
I108
I9
tp25
a(I24
I36
I48
I68
I1
tp26
a(I32
I72
I60
I120
I1
tp27
a(I12
I104
I44
I120
I9
tp28
a(I8
I72
I40
I124
I8
tp29
a(I0
I36
I52
I100
I7
tp30
a(I12
I68
I28
I116
I4
tp31
a(I4
I72
I40
I116
I7
tp32
a(I40
I60
I56
I116
I2
tp33
a(I36
I16
I52
I100
I4
tp34
a(I12
I104
I56
I120
I3
tp35
a(I36
I60
I60
I92
I8
tp36
a(I24
I104
I48
I124
I0
tp37
a(I40
I44
I60
I88
I9
tp38
a(I16
I36
I48
I104
I4
tp39
a(I28
I92
I52
I120
I1
tp40
a(I20
I80
I60
I116
I2
tp41
a(I0
I52
I52
I80
I0
tp42
a(I24
I88
I56
I108
I8
tp43
a(I36
I48
I52
I116
I2
tp44
a(I24
I4
I60
I32
I3
tp45
a(I12
I44
I60
I92
I7
tp46
a(I16
I88
I52
I104
I7
tp47
a(I44
I32
I60
I100
I1
tp48
a(I24
I64
I48
I80
I1
tp49
a(I8
I96
I48
I116
I1
tp50
a(I0
I84
I36
I108
I2
tp51
a(I4
I68
I52
I92
I0
tp52
a(I4
I40
I36
I124
I3
tp53
a(I0
I84
I52
I112
I1
tp54
a(I36
I100
I60
I116
I6
tp55
a(I24
I104
I52
I120
I1
tp56
a(I44
I48
I60
I104
I2
tp57
a(I28
I32
I44
I124
I9
tp58
a(I20
I104
I56
I120
I1
tp59
a(I12
I52
I28
I80
I1
tp60
a(I28
I104
I56
I124
I8
tp61
a(I16
I92
I36
I124
I9
tp62
a(I44
I92
I60
I116
I7
tp63
a(I20
I60
I40
I108
I0
tp64
a(I28
I28
I52
I80
I8
tp65
a(I36
I92
I52
I108
I2
tp66
a(I4
I76
I36
I96
I0
tp67
a(I16
I16
I60
I116
I9
tp68
a(I36
I72
I56
I112
I6
tp69
a(I16
I60
I40
I112
I5
tp70
a(I24
I108
I40
I124
I3
tp71
a(I32
I24
I60
I120
I5
tp72
a(I44
I52
I60
I100
I3
tp73
a(I16
I84
I44
I124
I1
tp74
a(I32
I92
I52
I120
I4
tp75
a(I8
I36
I40
I80
I9
tp76
a(I32
I56
I56
I76
I8
tp77
a(I4
I16
I40
I112
I3
tp78
a(I0
I28
I40
I108
I4
tp79
a(I36
I92
I60
I120
I2
tp80
a(I24
I56
I60
I92
I6
tp81
a(I4
I84
I28
I120
I3
tp82
a(I0
I4
I52
I92
I4
tp83
a(I20
I100
I60
I116
I2
tp84
a(I12
I76
I60
I124
I9
tp85
a(I36
I92
I56
I120
I4
tp86
a(I40
I44
I56
I116
I5
tp87
a(I44
I8
I60
I48
I9
tp88
a(I28
I84
I52
I112
I1
tp89
a(I40
I40
I56
I112
I7
tp90
a(I36
I80
I60
I104
I4
tp91
a(I20
I0
I48
I96
I9
tp92
a(I24
I12
I52
I112
I2
tp93
a(I44
I64
I60
I84
I9
tp94
a(I12
I0
I60
I24
I9
tp95
a(I20
I28
I44
I56
I2
tp96
a(I24
I96
I44
I120
I4
tp97
a(I28
I36
I52
I76
I1
tp98
a(I32
I16
I56
I60
I6
tp99
a(I0
I80
I16
I108
I2
tp100
a(I20
I48
I60
I76
I7
tp101
a(I36
I52
I56
I108
I4
tp102
a(I44
I96
I60
I124
I6
tp103
a(I36
I100
I52
I116
I4
tp104
a(I0
I80
I28
I100
I6
tp105
a(I0
I96
I24
I112
I5
tp106
a(I12
I76
I56
I112
I3
tp107
a(I4
I68
I56
I100
I2
tp108
a(I44
I72
I60
I92
I3
tp109
a(I8
I32
I24
I104
I1
tp110
a(I40
I8
I56
I120
I0
tp111
a(I4
I92
I20
I120
I3
tp112
a(I40
I44
I56
I64
I5
tp113
a(I36
I12
I52
I124
I4
tp114
a(I0
I32
I32
I84
I9
tp115
a(I0
I84
I36
I116
I3
tp116
a(I0
I8
I24
I108
I4
tp117
a(I28
I104
I56
I120
I8
tp118
a(I12
I60
I36
I124
I3
tp119
a(I8
I28
I60
I88
I3
tp120
a(I32
I24
I56
I116
I7
tp121
a(I12
I108
I36
I124
I0
tp122
a(I16
I20
I44
I104
I0
tp123
a(I40
I48
I56
I104
I5
tp124
a(I36
I76
I60
I108
I3
tp125
a(I8
I16
I36
I88
I9
tp126
a(I32
I24
I56
I64
I5
tp127
a(I44
I100
I60
I116
I5
tp128
a(I36
I100
I60
I120
I4
tp129
a(I4
I68
I28
I84
I6
tp130
a(I40
I0
I56
I44
I9
tp131
a(I16
I108
I60
I124
I6
tp132
a(I4
I0
I24
I92
I2
tp133
a(I44
I12
I60
I52
I1
tp134
a(I40
I56
I56
I80
I6
tp135
a(I32
I88
I48
I104
I5
tp136
a(I32
I32
I60
I104
I6
tp137
a(I8
I60
I40
I80
I4
tp138
a(I28
I104
I60
I120
I7
tp139
a(I20
I104
I36
I124
I6
tp140
a(I0
I24
I60
I56
I1
tp141
a(I24
I44
I56
I68
I1
tp142
a(I40
I8
I56
I120
I8
tp143
a(I24
I60
I48
I76
I8
tp144
a(I8
I16
I52
I88
I4
tp145
a(I4
I92
I40
I120
I3
tp146
a(I36
I60
I60
I120
I1
tp147
a(I4
I100
I56
I124
I7
tp148
a(I36
I80
I52
I124
I6
tp149
a(I40
I16
I56
I40
I9
tp150
a(I0
I4
I16
I124
I8
tp151
a(I24
I20
I52
I84
I2
tp152
a(I20
I52
I48
I80
I5
tp153
a(I20
I8
I52
I68
I3
tp154
a(I24
I36
I52
I64
I8
tp155
a(I44
I16
I60
I96
I0
tp156
a(I36
I28
I56
I72
I5
tp157
a(I16
I68
I36
I92
I0
tp158
a(I0
I32
I60
I116
I6
tp159
a(I32
I48
I60
I68
I0
tp160
a(I4
I60
I40
I88
I9
tp161
a(I40
I36
I60
I80
I4
tp162
a(I40
I36
I60
I92
I0
tp163
a(I40
I68
I56
I104
I1
tp164
a(I28
I56
I56
I120
I6
tp165
a(I20
I72
I48
I112
I6
tp166
a(I24
I88
I44
I124
I0
tp167
a(I16
I8
I32
I72
I1
tp168
a(I16
I20
I60
I48
I2
tp169
a(I16
I92
I36
I112
I5
tp170
a(I8
I80
I24
I100
I3
tp171
a(I28
I80
I60
I116
I0
tp172
a(I36
I0
I60
I16
I7
tp173
a(I0
I20
I28
I120
I4
tp174
a(I40
I100
I60
I120
I4
tp175
a(I12
I52
I44
I96
I9
tp176
a(I12
I40
I56
I92
I2
tp177
a(I24
I100
I44
I120
I0
tp178
a(I44
I44
I60
I88
I9
tp179
a(I12
I84
I44
I112
I1
tp180
a(I12
I88
I52
I124
I2
tp181
a(I24
I68
I56
I96
I1
tp182
a(I24
I56
I48
I116
I9
tp183
a(I28
I56
I48
I116
I1
tp184
a(I36
I48
I60
I116
I0
tp185
a(I16
I16
I44
I92
I1
tp186
a(I4
I32
I48
I68
I1
tp187
a(I20
I24
I40
I116
I9
tp188
a(I20
I28
I36
I124
I9
tp189
a(I24
I88
I56
I104
I0
tp190
a(I40
I4
I60
I120
I4
tp191
a(I0
I104
I32
I120
I2
tp192
a(I32
I64
I52
I88
I2
tp193
a(I40
I20
I60
I64
I6
tp194
a(I44
I48
I60
I124
I0
tp195
a(I28
I80
I56
I112
I0
tp196
a(I0
I40
I40
I76
I7
tp197
a(I44
I8
I60
I120
I1
tp198
a(I8
I48
I24
I124
I3
tp199
a(I8
I4
I48
I96
I6
tp200
a(I20
I12
I60
I100
I0
tp201
a(I28
I104
I48
I124
I9
tp202
a(I36
I28
I56
I80
I4
tp203
a(I40
I72
I56
I124
I9
tp204
a(I4
I60
I32
I88
I5
tp205
a(I0
I96
I28
I120
I8
tp206
a(I24
I8
I40
I92
I4
tp207
a(I0
I100
I16
I120
I5
tp208
a(I40
I72
I56
I112
I7
tp209
a(I40
I100
I56
I116
I3
tp210
a(I28
I104
I56
I120
I7
tp211
a(I4
I104
I32
I120
I8
tp212
a(I8
I12
I36
I88
I2
tp213
a(I0
I80
I16
I120
I1
tp214
a(I20
I60
I44
I88
I9
tp215
a(I28
I28
I44
I112
I1
tp216
a(I44
I4
I60
I100
I8
tp217
a(I20
I44
I44
I88
I4
tp218
a(I32
I104
I48
I120
I7
tp219
a(I36
I48
I56
I108
I3
tp220
a(I28
I24
I44
I52
I2
tp221
a(I44
I108
I60
I124
I3
tp222
a(I20
I0
I48
I108
I6
tp223
a(I36
I68
I60
I104
I6
tp224
a(I28
I88
I48
I108
I2
tp225
a(I0
I84
I60
I116
I6
tp226
a(I12
I40
I28
I64
I0
tp227
a(I40
I108
I56
I124
I2
tp228
a(I12
I68
I40
I92
I7
tp229
a(I0
I84
I48
I120
I5
tp230
a(I44
I20
I60
I72
I4
tp231
a(I24
I0
I52
I92
I3
tp232
a(I12
I52
I44
I124
I2
tp233
a(I16
I56
I48
I100
I9
tp234
a(I12
I80
I52
I96
I9
tp235
a(I8
I64
I32
I80
I0
tp236
a(I4
I68
I32
I108
I0
tp237
a(I16
I104
I36
I120
I8
tp238
a(I40
I4
I56
I80
I0
tp239
a(I44
I28
I60
I92
I2
tp240
a(I24
I12
I40
I120
I5
tp241
a(I32
I44
I48
I68
I7
tp242
a(I40
I4
I56
I36
I6
tp243
a(I24
I84
I52
I104
I6
tp244
a(I40
I36
I60
I108
I3
tp245
a(I28
I32
I56
I120
I0
tp246
a(I24
I56
I48
I100
I2
tp247
a(I12
I0
I32
I124
I2
tp248
a(I8
I32
I36
I112
I4
tp249
a(I32
I80
I48
I116
I7
tp250
a(I20
I40
I48
I112
I8
tp251
a(I36
I76
I56
I96
I7
tp252
a(I40
I24
I60
I88
I6
tp253
a(I40
I24
I60
I92
I3
tp254
a(I0
I92
I32
I108
I2
tp255
a(I12
I84
I60
I120
I8
tp256
a(I12
I48
I52
I80
I8
tp257
a(I16
I84
I48
I108
I6
tp258
a(I0
I76
I44
I112
I1
tp259
a(I16
I72
I48
I92
I5
tp260
a(I36
I8
I60
I124
I9
tp261
a(I40
I28
I60
I84
I0
tp262
a(I32
I72
I60
I108
I1
tp263
a(I12
I8
I56
I60
I9
tp264
a(I4
I4
I48
I24
I1
tp265
a(I40
I16
I60
I52
I8
tp266
a(I36
I24
I60
I68
I5
tp267
a(I40
I32
I56
I124
I6
tp268
a(I20
I88
I56
I108
I0
tp269
a(I36
I108
I60
I124
I5
tp270
a(I0
I64
I48
I108
I1
tp271
a(I8
I8
I32
I116
I0
tp272
a(I8
I72
I52
I120
I5
tp273
a(I0
I108
I32
I124
I6
tp274
a(I28
I32
I60
I100
I9
tp275
a(I32
I32
I48
I80
I3
tp276
a(I36
I8
I52
I112
I5
tp277
a(I20
I64
I36
I112
I1
tp278
a(I12
I60
I52
I88
I8
tp279
a(I12
I0
I52
I40
I2
tp280
a(I44
I96
I60
I120
I9
tp281
a(I16
I56
I56
I72
I2
tp282
a(I32
I52
I52
I112
I0
tp283
a(I16
I64
I56
I88
I5
tp284
a(I8
I96
I32
I112
I2
tp285
a(I28
I0
I60
I68
I0
tp286
a(I8
I68
I36
I100
I6
tp287
a(I40
I84
I60
I120
I1
tp288
a(I4
I80
I28
I104
I7
tp289
a(I8
I8
I48
I68
I9
tp290
a(I36
I60
I56
I116
I7
tp291
a(I4
I8
I32
I32
I1
tp292
a(I28
I12
I44
I72
I2
tp293
a(I8
I24
I24
I120
I9
tp294
a(I20
I56
I36
I88
I7
tp295
a(I0
I100
I44
I120
I6
tp296
a(I16
I36
I36
I72
I7
tp297
a(I40
I40
I60
I92
I7
tp298
a(I16
I8
I60
I88
I2
tp299
a(I36
I76
I60
I104
I4
tp300
a(I36
I40
I60
I124
I4
tp301
a(I20
I84
I44
I112
I2
tp302
a(I0
I104
I56
I124
I7
tp303
a(I28
I64
I48
I88
I8
tp304
a(I36
I16
I60
I112
I2
tp305
a(I20
I44
I40
I72
I6
tp306
a(I40
I36
I60
I56
I9
tp307
a(I0
I68
I16
I92
I0
tp308
a(I4
I104
I40
I124
I9
tp309
a(I20
I68
I44
I116
I5
tp310
a(I8
I12
I56
I120
I3
tp311
a(I32
I44
I56
I68
I5
tp312
a(I16
I48
I48
I88
I0
tp313
a(I36
I80
I52
I108
I4
tp314
a(I4
I80
I60
I96
I4
tp315
a(I40
I28
I60
I56
I5
tp316
a(I16
I92
I36
I124
I9
tp317
a(I8
I60
I56
I100
I4
tp318
a(I24
I56
I56
I116
I0
tp319
a(I40
I44
I56
I124
I6
tp320
a(I4
I8
I60
I40
I9
tp321
a(I8
I36
I44
I84
I1
tp322
a(I12
I60
I56
I116
I2
tp323
a(I20
I84
I40
I100
I1
tp324
a(I28
I72
I44
I100
I9
tp325
a(I16
I72
I36
I92
I6
tp326
a(I20
I8
I36
I40
I9
tp327
a(I12
I36
I28
I68
I5
tp328
a(I40
I28
I56
I56
I2
tp329
a(I0
I64
I52
I124
I5
tp330
a(I12
I0
I56
I36
I8
tp331
a(I20
I84
I60
I108
I8
tp332
a(I32
I104
I60
I124
I1
tp333
a(I44
I84
I60
I112
I8
tp334
a(I20
I12
I48
I104
I4
tp335
a(I8
I44
I44
I116
I1
tp336
a(I36
I20
I56
I104
I5
tp337
a(I16
I40
I56
I60
I8
tp338
a(I12
I20
I32
I120
I3
tp339
a(I36
I76
I56
I124
I6
tp340
a(I8
I0
I36
I104
I0
tp341
a(I20
I36
I40
I124
I0
tp342
a(I20
I60
I52
I124
I0
tp343
a(I44
I24
I60
I72
I5
tp344
a(I4
I20
I48
I120
I9
tp345
a(I4
I88
I24
I116
I5
tp346
a(I36
I108
I60
I124
I2
tp347
a(I32
I48
I52
I112
I8
tp348
a(I36
I88
I56
I124
I8
tp349
a(I12
I8
I52
I68
I3
tp350
a(I0
I60
I44
I84
I0
tp351
a(I12
I68
I60
I96
I8
tp352
a(I24
I20
I40
I64
I6
tp353
a(I0
I72
I24
I116
I0
tp354
a(I16
I72
I40
I104
I5
tp355
a(I4
I68
I52
I92
I8
tp356
a(I24
I60
I40
I84
I9
tp357
a(I0
I72
I52
I96
I0
tp358
a(I24
I8
I60
I60
I4
tp359
a(I36
I32
I56
I104
I2
tp360
a(I16
I84
I36
I108
I0
tp361
a(I0
I60
I48
I108
I0
tp362
a(I24
I24
I60
I68
I7
tp363
a(I12
I16
I60
I108
I2
tp364
a(I24
I88
I40
I116
I9
tp365
a(I0
I12
I60
I112
I1
tp366
a(I36
I64
I60
I120
I0
tp367
a(I8
I88
I36
I120
I9
tp368
a(I8
I40
I24
I56
I2
tp369
a(I16
I8
I48
I56
I3
tp370
a(I44
I80
I60
I96
I0
tp371
a(I40
I60
I60
I104
I3
tp372
a(I16
I28
I44
I80
I9
tp373
a(I8
I80
I60
I120
I3
tp374
a(I0
I88
I32
I124
I4
tp375
a(I20
I60
I60
I100
I6
tp376
a(I24
I48
I44
I92
I1
tp377
a(I8
I108
I48
I124
I0
tp378
a(I8
I64
I60
I80
I9
tp379
a(I8
I40
I44
I112
I2
tp380
a(I12
I92
I48
I116
I2
tp381
a(I4
I72
I20
I124
I7
tp382
a(I40
I0
I60
I24
I7
tp383
a(I28
I44
I60
I104
I1
tp384
a(I36
I32
I56
I64
I9
tp385
a(I28
I80
I52
I100
I0
tp386
a(I36
I16
I56
I32
I1
tp387
a(I12
I84
I52
I100
I9
tp388
a(I16
I12
I48
I80
I2
tp389
a(I32
I88
I52
I120
I2
tp390
a(I20
I84
I52
I124
I9
tp391
a(I40
I52
I60
I104
I2
tp392
a(I4
I76
I20
I112
I1
tp393
a(I16
I40
I44
I84
I8
tp394
a(I4
I52
I32
I108
I1
tp395
a(I32
I4
I52
I88
I2
tp396
a(I24
I60
I48
I108
I4
tp397
a(I24
I4
I56
I32
I1
tp398
a(I28
I96
I60
I120
I0
tp399
a(I16
I76
I36
I100
I7
tp400
a(I4
I64
I52
I108
I8
tp401
a(I44
I32
I60
I124
I2
tp402
a(I16
I72
I56
I104
I9
tp403
a(I0
I96
I28
I116
I8
tp404
a(I36
I76
I60
I120
I4
tp405
a(I4
I108
I36
I124
I4
tp406
a(I20
I96
I40
I116
I2
tp407
a(I12
I8
I52
I40
I4
tp408
a(I24
I60
I60
I96
I0
tp409
a(I12
I68
I32
I112
I9
tp410
a(I16
I68
I32
I112
I7
tp411
a(I36
I68
I56
I116
I9
tp412
a(I28
I4
I48
I24
I3
tp413
a(I12
I16
I28
I48
I3
tp414
a(I44
I20
I60
I100
I9
tp415
a(I12
I72
I36
I88
I5
tp416
a(I32
I88
I52
I124
I8
tp417
a(I16
I8
I32
I120
I5
tp418
a(I12
I52
I36
I88
I1
tp419
a(I24
I8
I60
I72
I0
tp420
a(I28
I108
I48
I124
I4
tp421
a(I12
I80
I56
I116
I9
tp422
a(I20
I68
I52
I104
I3
tp423
a(I40
I80
I60
I112
I5
tp424
a(I24
I80
I60
I124
I2
tp425
a(I12
I24
I48
I52
I8
tp426
a(I20
I52
I52
I100
I1
tp427
a(I28
I92
I48
I112
I8
tp428
a(I12
I104
I40
I124
I3
tp429
a(I24
I76
I56
I100
I2
tp430
a(I36
I72
I60
I124
I8
tp431
a(I28
I100
I48
I120
I0
tp432
a(I16
I80
I40
I120
I9
tp433
a(I44
I68
I60
I104
I2
tp434
a(I0
I64
I28
I112
I0
tp435
a(I0
I16
I24
I52
I5
tp436
a(I4
I104
I40
I120
I1
tp437
a(I20
I12
I52
I116
I0
tp438
a(I24
I32
I56
I60
I1
tp439
a(I44
I40
I60
I116
I5
tp440
a(I20
I32
I52
I100
I2
tp441
a(I20
I56
I56
I76
I6
tp442
a(I40
I56
I56
I124
I8
tp443
a(I32
I92
I60
I124
I5
tp444
a(I12
I0
I36
I64
I7
tp445
a(I40
I8
I56
I56
I1
tp446
a(I40
I28
I56
I96
I3
tp447
a(I40
I52
I60
I96
I0
tp448
a(I44
I12
I60
I56
I5
tp449
a(I36
I48
I60
I88
I9
tp450
a(I20
I88
I60
I104
I8
tp451
a(I40
I104
I56
I124
I2
tp452
a(I12
I20
I40
I72
I1
tp453
a(I32
I92
I60
I120
I1
tp454
a(I0
I92
I36
I120
I2
tp455
a(I4
I12
I20
I32
I4
tp456
a(I32
I16
I56
I100
I4
tp457
a(I40
I12
I60
I76
I3
tp458
a(I0
I76
I32
I100
I8
tp459
a(I44
I72
I60
I96
I7
tp460
a(I16
I36
I40
I64
I6
tp461
a(I32
I28
I52
I116
I0
tp462
a(I36
I20
I60
I64
I1
tp463
a(I8
I8
I28
I68
I2
tp464
a(I32
I108
I60
I124
I8
tp465
a(I24
I44
I48
I100
I4
tp466
a(I20
I88
I48
I112
I4
tp467
a(I0
I96
I56
I112
I3
tp468
a(I4
I64
I32
I104
I5
tp469
a(I28
I64
I48
I120
I4
tp470
a(I40
I32
I56
I84
I9
tp471
a(I36
I68
I56
I116
I8
tp472
a(I0
I76
I56
I92
I4
tp473
a(I20
I88
I52
I124
I2
tp474
a(I32
I100
I56
I116
I5
tp475
a(I36
I44
I56
I92
I6
tp476
a(I20
I88
I40
I108
I0
tp477
a(I28
I100
I52
I116
I8
tp478
a(I20
I52
I56
I104
I8
tp479
a(I0
I44
I24
I120
I6
tp480
a(I28
I64
I52
I112
I4
tp481
a(I16
I32
I40
I76
I0
tp482
a(I8
I0
I40
I80
I2
tp483
a(I36
I100
I60
I120
I5
tp484
a(I0
I40
I52
I84
I4
tp485
a(I24
I72
I56
I120
I5
tp486
a(I0
I20
I48
I36
I0
tp487
a(I20
I24
I56
I60
I2
tp488
a(I36
I96
I60
I112
I4
tp489
a(I12
I80
I60
I112
I9
tp490
a(I20
I36
I36
I68
I9
tp491
a(I4
I36
I36
I96
I0
tp492
a(I36
I28
I60
I112
I2
tp493
a(I36
I104
I60
I120
I8
tp494
a(I40
I32
I56
I116
I2
tp495
a(I4
I16
I56
I64
I9
tp496
a(I4
I28
I56
I88
I1
tp497
a(I36
I84
I60
I112
I3
tp498
a(I0
I16
I36
I52
I2
tp499
a(I32
I8
I48
I88
I9
tp500
a(I32
I48
I48
I120
I5
tp501
a(I4
I20
I40
I76
I9
tp502
a(I8
I24
I52
I72
I9
tp503
a(I16
I16
I48
I44
I7
tp504
a(I16
I24
I52
I108
I8
tp505
a(I12
I24
I36
I52
I2
tp506
a(I24
I40
I48
I92
I3
tp507
a(I44
I48
I60
I108
I2
tp508
a(I20
I52
I60
I124
I0
tp509
a(I32
I88
I52
I104
I5
tp510
a(I0
I92
I48
I120
I2
tp511
a(I28
I32
I48
I116
I6
tp512
a(I44
I16
I60
I80
I0
tp513
a(I0
I80
I48
I100
I9
tp514
a(I16
I44
I48
I72
I1
tp515
a(I20
I80
I56
I116
I5
tp516
a(I8
I72
I56
I108
I2
tp517
a(I40
I32
I56
I104
I7
tp518
a(I20
I4
I48
I112
I6
tp519
a(I4
I108
I32
I124
I1
tp520
a(I28
I96
I44
I116
I7
tp521
a(I44
I68
I60
I116
I1
tp522
a(I4
I96
I44
I124
I0
tp523
a(I36
I36
I56
I80
I6
tp524
a(I8
I36
I36
I68
I3
tp525
a(I28
I20
I52
I44
I0
tp526
a(I36
I84
I52
I120
I2
tp527
a(I36
I84
I60
I108
I0
tp528
a(I4
I16
I32
I108
I4
tp529
a(I28
I104
I60
I120
I4
tp530
a(I4
I100
I56
I116
I5
tp531
a(I0
I28
I40
I52
I8
tp532
a(I32
I32
I48
I108
I0
tp533
a(I4
I100
I40
I116
I6
tp534
a(I36
I40
I56
I60
I3
tp535
a(I32
I76
I60
I104
I7
tp536
a(I0
I36
I24
I96
I1
tp537
a(I36
I100
I52
I124
I8
tp538
a(I32
I60
I48
I112
I9
tp539
a(I20
I80
I60
I112
I6
tp540
a(I20
I28
I56
I100
I2
tp541
a(I8
I104
I44
I120
I5
tp542
a(I8
I88
I40
I104
I0
tp543
a(I28
I28
I60
I52
I2
tp544
a(I40
I88
I56
I120
I1
tp545
a(I16
I40
I40
I68
I1
tp546
a(I24
I68
I52
I124
I8
tp547
a(I20
I96
I52
I120
I1
tp548
a(I32
I12
I48
I104
I3
tp549
a(I32
I100
I48
I116
I9
tp550
a(I12
I100
I48
I124
I3
tp551
a(I0
I24
I40
I96
I5
tp552
a(I20
I28
I56
I60
I1
tp553
a(I20
I32
I56
I104
I6
tp554
a(I12
I92
I48
I124
I7
tp555
a(I12
I68
I56
I100
I5
tp556
a(I4
I24
I36
I124
I4
tp557
a(I16
I68
I56
I104
I6
tp558
a(I8
I48
I44
I120
I6
tp559
a(I32
I88
I60
I116
I9
tp560
a(I44
I44
I60
I88
I8
tp561
a(I20
I28
I48
I100
I3
tp562
a(I40
I8
I60
I80
I2
tp563
a(I40
I36
I60
I56
I8
tp564
a(I44
I4
I60
I120
I0
tp565
a(I12
I100
I48
I124
I7
tp566
a(I44
I4
I60
I64
I9
tp567
a(I36
I56
I56
I80
I1
tp568
a(I32
I60
I56
I116
I6
tp569
a(I28
I96
I60
I120
I7
tp570
a(I12
I0
I40
I32
I0
tp571
a(I16
I8
I36
I60
I9
tp572
a(I40
I60
I60
I80
I4
tp573
a(I44
I68
I60
I96
I9
tp574
a(I40
I16
I56
I76
I7
tp575
a(I12
I44
I56
I88
I4
tp576
a(I12
I40
I28
I104
I0
tp577
a(I24
I0
I56
I28
I6
tp578
a(I0
I92
I32
I120
I9
tp579
a(I16
I68
I48
I108
I6
tp580
a(I12
I0
I56
I104
I5
tp581
a(I4
I48
I52
I64
I9
tp582
a(I8
I8
I60
I116
I3
tp583
a(I32
I52
I52
I84
I7
tp584
a(I24
I92
I60
I116
I8
tp585
a(I16
I36
I60
I88
I8
tp586
a(I8
I80
I36
I124
I7
tp587
a(I16
I96
I60
I124
I8
tp588
a(I8
I16
I36
I40
I3
tp589
a(I12
I8
I56
I112
I0
tp590
a(I32
I52
I56
I76
I1
tp591
a(I12
I48
I28
I72
I3
tp592
a(I40
I72
I60
I108
I8
tp593
a(I24
I48
I56
I96
I2
tp594
a(I8
I8
I40
I80
I9
tp595
a(I16
I104
I36
I124
I7
tp596
a(I44
I24
I60
I48
I2
tp597
a(I28
I44
I44
I92
I4
tp598
a(I0
I12
I28
I80
I3
tp599
a(I28
I36
I44
I100
I4
tp600
a(I0
I24
I52
I108
I1
tp601
a(I20
I4
I44
I36
I9
tp602
a(I16
I84
I56
I116
I6
tp603
a(I0
I84
I60
I120
I8
tp604
a(I40
I68
I56
I112
I4
tp605
a(I12
I96
I44
I124
I5
tp606
a(I20
I16
I60
I76
I7
tp607
a(I28
I44
I56
I72
I4
tp608
a(I16
I40
I36
I100
I2
tp609
a(I8
I12
I52
I52
I0
tp610
a(I16
I96
I32
I124
I8
tp611
a(I0
I80
I44
I96
I1
tp612
a(I28
I60
I44
I108
I9
tp613
a(I4
I88
I44
I108
I1
tp614
a(I4
I20
I56
I116
I2
tp615
a(I12
I44
I44
I84
I8
tp616
a(I24
I48
I40
I112
I2
tp617
a(I16
I76
I60
I108
I8
tp618
a(I36
I108
I60
I124
I6
tp619
a(I36
I72
I56
I100
I9
tp620
a(I36
I68
I56
I124
I2
tp621
a(I8
I88
I40
I120
I3
tp622
a(I32
I56
I52
I92
I7
tp623
a(I44
I12
I60
I56
I1
tp624
a(I44
I32
I60
I48
I8
tp625
a(I12
I40
I40
I120
I8
tp626
a(I24
I80
I48
I112
I0
tp627
a(I0
I84
I36
I120
I1
tp628
a(I40
I92
I56
I120
I1
tp629
a(I28
I40
I44
I120
I8
tp630
a(I44
I56
I60
I112
I9
tp631
a(I16
I24
I56
I116
I6
tp632
a(I36
I48
I52
I92
I5
tp633
a(I44
I4
I60
I32
I5
tp634
a(I36
I96
I52
I120
I4
tp635
a(I32
I28
I48
I108
I3
tp636
a(I28
I108
I44
I124
I7
tp637
a(I44
I56
I60
I96
I9
tp638
a(I36
I12
I52
I44
I4
tp639
a(I12
I96
I56
I120
I1
tp640
a(I28
I36
I44
I108
I3
tp641
a(I36
I32
I56
I64
I8
tp642
a(I28
I12
I44
I48
I9
tp643
a(I28
I104
I44
I120
I3
tp644
a(I4
I68
I44
I100
I4
tp645
a(I12
I48
I28
I64
I3
tp646
a(I28
I72
I56
I96
I9
tp647
a(I0
I100
I24
I120
I4
tp648
a(I0
I56
I24
I100
I7
tp649
a(I20
I4
I40
I116
I8
tp650
a(I24
I72
I40
I124
I5
tp651
a(I32
I0
I60
I28
I3
tp652
a(I28
I44
I44
I104
I9
tp653
a(I44
I28
I60
I96
I6
tp654
a(I36
I84
I52
I104
I3
tp655
a(I4
I4
I28
I40
I1
tp656
a(I12
I100
I56
I116
I7
tp657
a(I12
I20
I36
I68
I9
tp658
a(I20
I108
I44
I124
I2
tp659
a(I20
I96
I36
I124
I0
tp660
a(I16
I56
I32
I108
I1
tp661
a(I12
I12
I44
I112
I9
tp662
a(I36
I40
I56
I56
I8
tp663
a(I4
I44
I56
I112
I0
tp664
a(I20
I100
I40
I116
I6
tp665
a(I8
I20
I52
I100
I5
tp666
a(I44
I12
I60
I96
I4
tp667
a(I36
I96
I52
I124
I8
tp668
a(I32
I8
I52
I24
I3
tp669
a(I24
I48
I48
I100
I3
tp670
a(I40
I20
I60
I44
I3
tp671
a(I40
I72
I60
I104
I6
tp672
a(I32
I52
I52
I120
I6
tp673
a(I4
I28
I36
I52
I3
tp674
a(I0
I48
I60
I80
I2
tp675
a(I12
I88
I40
I104
I5
tp676
a(I32
I28
I52
I72
I3
tp677
a(I20
I60
I36
I124
I8
tp678
a(I4
I8
I48
I40
I3
tp679
a(I20
I24
I48
I120
I2
tp680
a(I36
I84
I56
I116
I9
tp681
a(I4
I104
I40
I120
I0
tp682
a(I8
I20
I60
I124
I2
tp683
a(I12
I0
I32
I36
I0
tp684
a(I44
I88
I60
I104
I6
tp685
a(I16
I4
I52
I112
I8
tp686
a(I36
I104
I52
I120
I3
tp687
a(I8
I64
I28
I116
I9
tp688
a(I0
I88
I44
I120
I0
tp689
a(I16
I4
I36
I80
I3
tp690
a(I0
I92
I32
I112
I2
tp691
a(I36
I0
I56
I60
I5
tp692
a(I40
I0
I56
I32
I6
tp693
a(I0
I80
I52
I96
I6
tp694
a(I32
I28
I60
I108
I3
tp695
a(I36
I88
I60
I120
I8
tp696
a(I0
I20
I48
I100
I2
tp697
a(I8
I40
I48
I100
I8
tp698
a(I4
I44
I36
I124
I2
tp699
a(I4
I40
I24
I96
I6
tp700
a(I36
I104
I56
I124
I8
tp701
a(I40
I84
I60
I112
I4
tp702
a(I28
I80
I60
I104
I6
tp703
a(I24
I4
I60
I20
I4
tp704
a(I32
I96
I48
I116
I5
tp705
a(I0
I88
I56
I108
I1
tp706
a(I20
I80
I48
I124
I3
tp707
a(I20
I20
I60
I104
I7
tp708
a(I28
I64
I52
I120
I2
tp709
a(I44
I20
I60
I36
I2
tp710
a(I4
I16
I32
I60
I7
tp711
a(I32
I76
I56
I104
I4
tp712
a(I28
I108
I44
I124
I9
tp713
a(I24
I100
I52
I124
I1
tp714
a(I12
I64
I40
I116
I4
tp715
a(I24
I68
I56
I120
I2
tp716
a(I40
I20
I60
I104
I7
tp717
a(I44
I36
I60
I52
I1
tp718
a(I28
I108
I56
I124
I2
tp719
a(I24
I96
I56
I120
I2
tp720
a(I24
I56
I52
I96
I7
tp721
a(I28
I96
I48
I112
I8
tp722
a(I28
I84
I60
I116
I3
tp723
a(I36
I104
I56
I124
I0
tp724
a(I44
I52
I60
I68
I9
tp725
a(I28
I84
I52
I120
I9
tp726
a(I12
I0
I60
I84
I5
tp727
a(I32
I104
I60
I124
I7
tp728
a(I20
I28
I48
I124
I8
tp729
a(I24
I92
I56
I108
I9
tp730
a(I36
I72
I56
I100
I3
tp731
a(I20
I52
I60
I84
I1
tp732
a(I36
I52
I60
I100
I5
tp733
a(I8
I48
I32
I88
I5
tp734
a(I44
I88
I60
I120
I2
tp735
a(I12
I104
I40
I120
I1
tp736
a(I24
I76
I56
I104
I7
tp737
a(I24
I0
I44
I92
I2
tp738
a(I32
I60
I52
I104
I4
tp739
a(I24
I80
I48
I124
I8
tp740
a(I20
I4
I40
I120
I7
tp741
a(I36
I0
I60
I88
I3
tp742
a(I44
I56
I60
I104
I3
tp743
a(I0
I80
I60
I112
I3
tp744
a(I20
I4
I40
I60
I5
tp745
a(I16
I84
I40
I100
I3
tp746
a(I24
I12
I60
I84
I5
tp747
a(I20
I104
I40
I124
I4
tp748
a(I40
I56
I60
I80
I6
tp749
a(I12
I68
I48
I112
I8
tp750
a(I32
I60
I56
I76
I9
tp751
a(I24
I12
I40
I124
I3
tp752
a(I40
I52
I60
I68
I1
tp753
a(I40
I12
I60
I92
I4
tp754
a(I32
I56
I60
I108
I1
tp755
a(I20
I84
I60
I124
I7
tp756
a(I36
I88
I52
I104
I3
tp757
a(I12
I76
I60
I100
I5
tp758
a(I44
I76
I60
I120
I2
tp759
a(I32
I36
I48
I100
I9
tp760
a(I12
I108
I44
I124
I5
tp761
a(I44
I72
I60
I100
I5
tp762
a(I40
I68
I60
I116
I9
tp763
a(I44
I80
I60
I108
I6
tp764
a(I36
I4
I56
I24
I8
tp765
a(I28
I16
I60
I48
I3
tp766
a(I0
I92
I52
I124
I7
tp767
a(I36
I28
I60
I64
I5
tp768
a(I20
I100
I52
I120
I6
tp769
a(I36
I80
I52
I96
I2
tp770
a(I4
I44
I32
I116
I6
tp771
a(I4
I92
I44
I112
I0
tp772
a(I12
I28
I52
I68
I9
tp773
a(I20
I84
I36
I108
I5
tp774
a(I20
I44
I36
I112
I4
tp775
a(I44
I28
I60
I64
I2
tp776
a(I32
I16
I48
I60
I4
tp777
a(I20
I56
I52
I96
I0
tp778
a(I4
I88
I32
I124
I7
tp779
a(I4
I92
I52
I108
I1
tp780
a(I44
I68
I60
I112
I2
tp781
a(I20
I12
I52
I80
I8
tp782
a(I4
I8
I52
I104
I5
tp783
a(I32
I12
I56
I88
I8
tp784
a(I12
I96
I48
I112
I0
tp785
a(I20
I20
I48
I88
I5
tp786
a(I44
I0
I60
I40
I9
tp787
a(I8
I84
I28
I108
I8
tp788
a(I12
I52
I56
I76
I3
tp789
a(I16
I32
I44
I120
I6
tp790
a(I12
I0
I52
I32
I3
tp791
a(I36
I0
I60
I40
I6
tp792
a(I44
I8
I60
I28
I4
tp793
a(I8
I36
I44
I112
I6
tp794
a(I44
I64
I60
I80
I0
tp795
a(I36
I48
I52
I108
I1
tp796
a(I0
I16
I48
I112
I5
tp797
a(I44
I48
I60
I104
I3
tp798
a(I4
I16
I48
I44
I9
tp799
a(I36
I104
I56
I124
I5
tp800
a(I16
I32
I44
I108
I1
tp801
a(I44
I56
I60
I112
I0
tp802
a(I0
I108
I40
I124
I6
tp803
a(I24
I0
I60
I32
I6
tp804
a(I12
I8
I60
I48
I6
tp805
a(I24
I76
I40
I112
I4
tp806
a(I44
I64
I60
I112
I6
tp807
a(I0
I32
I60
I48
I6
tp808
a(I24
I4
I56
I48
I4
tp809
a(I24
I92
I56
I120
I9
tp810
a(I20
I64
I52
I108
I4
tp811
a(I32
I76
I60
I108
I4
tp812
a(I12
I60
I32
I116
I0
tp813
a(I20
I20
I60
I116
I8
tp814
a(I40
I4
I56
I96
I4
tp815
a(I16
I8
I40
I68
I2
tp816
a(I32
I8
I60
I124
I9
tp817
a(I8
I84
I56
I124
I1
tp818
a(I20
I28
I36
I100
I7
tp819
a(I12
I44
I44
I88
I6
tp820
a(I12
I28
I56
I108
I6
tp821
a(I16
I88
I48
I120
I7
tp822
a(I28
I56
I48
I84
I8
tp823
a(I20
I108
I40
I124
I5
tp824
a(I8
I32
I32
I48
I0
tp825
a(I20
I48
I48
I120
I9
tp826
a(I8
I0
I48
I120
I6
tp827
a(I8
I28
I28
I76
I5
tp828
a(I20
I96
I40
I116
I5
tp829
a(I4
I44
I56
I60
I6
tp830
a(I36
I36
I52
I72
I6
tp831
a(I24
I0
I56
I76
I9
tp832
a(I44
I88
I60
I108
I5
tp833
a(I0
I52
I16
I104
I9
tp834
a(I12
I28
I52
I52
I5
tp835
a(I12
I72
I60
I116
I6
tp836
a(I12
I72
I52
I124
I4
tp837
a(I24
I88
I52
I112
I5
tp838
a(I32
I28
I60
I68
I4
tp839
a(I16
I68
I36
I108
I9
tp840
a(I16
I12
I60
I96
I3
tp841
a(I8
I92
I28
I116
I0
tp842
a(I4
I40
I56
I112
I4
tp843
a(I4
I28
I44
I104
I9
tp844
a(I36
I104
I60
I120
I9
tp845
a(I4
I16
I56
I76
I2
tp846
a(I40
I8
I56
I24
I5
tp847
a(I16
I32
I36
I96
I4
tp848
a(I12
I88
I32
I108
I6
tp849
a(I40
I96
I60
I116
I4
tp850
a(I36
I32
I52
I68
I5
tp851
a(I8
I12
I52
I116
I3
tp852
a(I44
I36
I60
I64
I3
tp853
a(I12
I48
I44
I92
I6
tp854
a(I24
I92
I60
I120
I5
tp855
a(I44
I88
I60
I112
I9
tp856
a(I4
I20
I44
I40
I0
tp857
a(I16
I8
I36
I52
I5
tp858
a(I44
I40
I60
I56
I3
tp859
a(I24
I4
I60
I72
I7
tp860
a(I32
I0
I60
I16
I5
tp861
a(I4
I0
I48
I76
I6
tp862
a(I24
I44
I48
I92
I5
tp863
a(I36
I28
I56
I60
I8
tp864
a(I0
I56
I32
I76
I2
tp865
a(I20
I24
I60
I112
I7
tp866
a(I24
I16
I56
I68
I9
tp867
a(I24
I88
I60
I104
I6
tp868
a(I44
I44
I60
I76
I7
tp869
a(I20
I8
I44
I96
I5
tp870
a(I4
I40
I32
I92
I7
tp871
a(I8
I68
I28
I116
I7
tp872
a(I24
I52
I44
I116
I0
tp873
a(I32
I72
I60
I104
I3
tp874
a(I0
I44
I36
I64
I6
tp875
a(I20
I60
I52
I80
I7
tp876
a(I8
I104
I60
I124
I7
tp877
a(I36
I84
I56
I108
I4
tp878
a(I36
I100
I52
I116
I4
tp879
a(I28
I76
I44
I116
I7
tp880
a(I4
I84
I40
I104
I3
tp881
a(I32
I92
I60
I120
I1
tp882
a(I24
I48
I60
I80
I1
tp883
a(I12
I36
I40
I112
I9
tp884
a(I28
I36
I56
I112
I5
tp885
a(I16
I72
I48
I108
I3
tp886
a(I20
I100
I44
I124
I1
tp887
a(I44
I84
I60
I108
I9
tp888
a(I40
I24
I56
I44
I0
tp889
a(I44
I32
I60
I96
I2
tp890
a(I16
I104
I48
I120
I4
tp891
a(I8
I68
I56
I108
I1
tp892
a(I0
I4
I56
I52
I4
tp893
a(I36
I92
I56
I120
I1
tp894
a(I28
I44
I44
I68
I2
tp895
a(I40
I92
I56
I120
I4
tp896
a(I28
I0
I60
I88
I4
tp897
a(I28
I44
I44
I68
I1
tp898
a(I0
I92
I32
I112
I5
tp899
a(I32
I100
I60
I124
I6
tp900
a(I16
I72
I60
I108
I3
tp901
a(I8
I64
I36
I112
I7
tp902
a(I16
I28
I52
I60
I4
tp903
a(I8
I0
I28
I108
I2
tp904
a(I40
I92
I60
I116
I7
tp905
a(I32
I0
I56
I116
I7
tp906
a(I12
I92
I52
I116
I1
tp907
a(I28
I40
I48
I112
I5
tp908
a(I44
I8
I60
I76
I2
tp909
a(I12
I64
I36
I84
I5
tp910
a(I28
I24
I60
I60
I9
tp911
a(I12
I48
I28
I108
I6
tp912
a(I0
I68
I16
I88
I0
tp913
a(I32
I8
I52
I84
I0
tp914
a(I12
I8
I36
I68
I8
tp915
a(I16
I4
I40
I32
I0
tp916
a(I36
I68
I60
I124
I2
tp917
a(I40
I68
I56
I104
I1
tp918
a(I32
I92
I56
I116
I3
tp919
a(I20
I84
I44
I112
I2
tp920
a(I36
I80
I52
I96
I2
tp921
a(I40
I36
I60
I68
I1
tp922
a(I8
I28
I44
I56
I4
tp923
a(I20
I100
I40
I116
I9
tp924
a(I36
I88
I56
I120
I7
tp925
a(I0
I76
I52
I112
I4
tp926
a(I16
I80
I32
I112
I1
tp927
a(I4
I36
I56
I92
I4
tp928
a(I0
I12
I28
I60
I2
tp929
a(I16
I8
I32
I124
I7
tp930
a(I0
I64
I40
I100
I9
tp931
a(I0
I56
I60
I116
I6
tp932
a(I28
I72
I52
I116
I4
tp933
a(I20
I60
I48
I88
I6
tp934
a(I20
I80
I52
I120
I1
tp935
a(I20
I36
I56
I116
I6
tp936
a(I24
I76
I44
I120
I9
tp937
a(I36
I68
I60
I116
I7
tp938
a(I4
I32
I32
I88
I1
tp939
a(I44
I76
I60
I100
I8
tp940
a(I8
I96
I40
I124
I8
tp941
a(I16
I48
I32
I72
I0
tp942
a(I36
I56
I56
I112
I1
tp943
a(I4
I36
I48
I68
I4
tp944
a(I24
I0
I52
I116
I3
tp945
a(I24
I20
I52
I124
I2
tp946
a(I12
I84
I56
I116
I7
tp947
a(I24
I64
I60
I100
I0
tp948
a(I36
I32
I56
I100
I7
tp949
a(I4
I40
I20
I124
I9
tp950
a(I4
I56
I56
I108
I1
tp951
a(I8
I56
I48
I108
I5
tp952
a(I16
I28
I40
I120
I9
tp953
a(I44
I48
I60
I112
I6
tp954
a(I0
I28
I36
I108
I5
tp955
a(I12
I16
I40
I120
I2
tp956
a(I44
I32
I60
I112
I3
tp957
a(I40
I12
I60
I48
I8
tp958
a(I20
I12
I44
I76
I8
tp959
a(I44
I12
I60
I112
I7
tp960
a(I28
I64
I56
I100
I3
tp961
a(I28
I48
I48
I88
I4
tp962
a(I32
I20
I60
I96
I0
tp963
a(I36
I100
I56
I120
I9
tp964
a(I20
I104
I52
I124
I6
tp965
a(I28
I0
I52
I36
I2
tp966
a(I28
I20
I48
I60
I8
tp967
a(I32
I96
I48
I120
I6
tp968
a(I32
I20
I48
I76
I8
tp969
a(I12
I36
I60
I52
I0
tp970
a(I36
I32
I52
I72
I1
tp971
a(I0
I16
I24
I76
I2
tp972
a(I40
I60
I60
I124
I6
tp973
a(I12
I8
I28
I40
I4
tp974
a(I28
I8
I56
I60
I3
tp975
a(I40
I12
I56
I40
I2
tp976
a(I8
I72
I36
I108
I3
tp977
a(I20
I32
I44
I76
I4
tp978
a(I4
I64
I40
I120
I6
tp979
a(I40
I64
I60
I84
I1
tp980
a(I16
I32
I48
I88
I8
tp981
a(I0
I8
I20
I60
I9
tp982
a(I4
I60
I32
I112
I1
tp983
a(I32
I44
I56
I84
I2
tp984
a(I36
I92
I60
I112
I3
tp985
a(I16
I100
I44
I124
I3
tp986
a(I0
I84
I60
I116
I8
tp987
a(I44
I96
I60
I112
I6
tp988
a(I8
I8
I52
I84
I6
tp989
a(I44
I84
I60
I120
I9
tp990
a(I12
I12
I56
I96
I3
tp991
a(I24
I48
I48
I80
I4
tp992
a(I4
I68
I40
I120
I1
tp993
a(I28
I64
I48
I80
I0
tp994
a(I20
I20
I40
I48
I9
tp995
a(I16
I68
I32
I104
I2
tp996
a(I16
I80
I40
I112
I2
tp997
a(I44
I8
I60
I96
I6
tp998
a(I8
I108
I24
I124
I8
tp999
a(I0
I60
I40
I96
I5
tp1000
a(I20
I60
I44
I88
I2
tp1001
a(I4
I92
I48
I116
I7
tp1002
a(I44
I40
I60
I80
I1
tp1003
a(I20
I16
I60
I84
I3
tp1004
a(I24
I40
I52
I68
I1
tp1005
a(I32
I16
I52
I68
I4
tp1006
a(I40
I0
I56
I96
I6
tp1007
a(I0
I68
I48
I100
I5
tp1008
a(I8
I16
I56
I100
I3
tp1009
a(I24
I108
I52
I124
I2
tp1010
a(I0
I108
I16
I124
I4
tp1011
a(I0
I4
I48
I84
I1
tp1012
a(I36
I72
I60
I112
I6
tp1013
a(I4
I72
I44
I120
I6
tp1014
a(I4
I4
I20
I100
I1
tp1015
a(I16
I100
I52
I116
I3
tp1016
a(I4
I4
I28
I40
I1
tp1017
a(I44
I12
I60
I96
I4
tp1018
a(I8
I36
I60
I116
I5
tp1019
a(I16
I60
I48
I124
I4
tp1020
a(I12
I48
I48
I104
I0
tp1021
a(I12
I68
I52
I92
I8
tp1022
a(I4
I12
I52
I80
I5
tp1023
a(I16
I24
I52
I108
I8
tp1024
a(I32
I24
I52
I68
I7
tp1025
a(I8
I48
I32
I104
I8
tp1026
a(I24
I68
I52
I120
I3
tp1027
a(I28
I16
I48
I104
I1
tp1028
a(I0
I92
I16
I124
I2
tp1029
a(I40
I28
I60
I112
I3
tp1030
a(I16
I104
I48
I124
I2
tp1031
a(I16
I108
I32
I124
I8
tp1032
a(I16
I92
I60
I108
I5
tp1033
a(I32
I88
I60
I116
I7
tp1034
a(I40
I20
I60
I80
I8
tp1035
a(I0
I8
I32
I104
I2
tp1036
a(I16
I104
I40
I120
I0
tp1037
a(I0
I4
I36
I92
I0
tp1038
a(I32
I4
I48
I92
I6
tp1039
a(I36
I48
I52
I72
I1
tp1040
a(I36
I8
I60
I64
I6
tp1041
a(I12
I52
I44
I88
I8
tp1042
a(I44
I28
I60
I104
I3
tp1043
a(I28
I72
I60
I100
I8
tp1044
a(I0
I12
I28
I28
I3
tp1045
a(I20
I16
I60
I32
I6
tp1046
a(I36
I8
I60
I52
I1
tp1047
a(I36
I80
I52
I124
I6
tp1048
a(I8
I8
I52
I116
I6
tp1049
a(I32
I88
I48
I116
I2
tp1050
a(I0
I32
I52
I76
I7
tp1051
a(I0
I76
I60
I124
I4
tp1052
a(I44
I32
I60
I108
I1
tp1053
a(I0
I108
I48
I124
I8
tp1054
a(I20
I48
I40
I116
I5
tp1055
a(I8
I92
I60
I108
I2
tp1056
a(I12
I28
I40
I60
I4
tp1057
a(I24
I100
I40
I116
I7
tp1058
a(I4
I48
I24
I88
I7
tp1059
a(I24
I4
I56
I32
I3
tp1060
a(I28
I68
I60
I96
I2
tp1061
a(I44
I44
I60
I124
I5
tp1062
a(I4
I76
I52
I108
I9
tp1063
a(I4
I48
I32
I96
I2
tp1064
a(I0
I40
I28
I112
I8
tp1065
a(I20
I8
I48
I84
I0
tp1066
a(I36
I20
I52
I84
I5
tp1067
a(I8
I56
I44
I92
I3
tp1068
a(I40
I68
I56
I96
I5
tp1069
a(I12
I84
I36
I104
I7
tp1070
a(I44
I88
I60
I104
I3
tp1071
a(I40
I32
I56
I52
I1
tp1072
a(I24
I108
I48
I124
I2
tp1073
a(I4
I48
I36
I96
I7
tp1074
a(I0
I28
I56
I56
I4
tp1075
a(I20
I60
I56
I80
I3
tp1076
a(I40
I48
I56
I68
I1
tp1077
a(I28
I20
I52
I88
I8
tp1078
a(I28
I52
I60
I80
I5
tp1079
a(I32
I68
I60
I84
I0
tp1080
a(I0
I20
I36
I112
I0
tp1081
a(I24
I16
I40
I96
I3
tp1082
a(I16
I56
I52
I96
I8
tp1083
a(I12
I68
I48
I108
I4
tp1084
a(I4
I64
I56
I100
I8
tp1085
a(I40
I76
I56
I108
I9
tp1086
a(I40
I20
I60
I92
I5
tp1087
a(I28
I4
I52
I120
I7
tp1088
a(I28
I72
I52
I92
I1
tp1089
a(I8
I64
I32
I92
I9
tp1090
a(I36
I100
I52
I124
I6
tp1091
a(I8
I68
I60
I124
I0
tp1092
a(I24
I28
I52
I68
I9
tp1093
a(I4
I0
I40
I24
I4
tp1094
a(I32
I40
I52
I108
I0
tp1095
a(I36
I88
I60
I112
I2
tp1096
a(I36
I12
I56
I72
I6
tp1097
a(I44
I72
I60
I92
I3
tp1098
a(I12
I64
I44
I92
I2
tp1099
a(I8
I84
I24
I124
I3
tp1100
a(I32
I88
I60
I112
I2
tp1101
a(I32
I96
I52
I116
I8
tp1102
a(I24
I80
I56
I108
I5
tp1103
a(I28
I108
I48
I124
I8
tp1104
a(I40
I56
I56
I76
I5
tp1105
a(I40
I28
I60
I80
I6
tp1106
a(I28
I76
I48
I124
I4
tp1107
a(I28
I104
I44
I124
I4
tp1108
a(I28
I12
I52
I76
I7
tp1109
a(I4
I4
I36
I52
I4
tp1110
a(I24
I56
I44
I120
I5
tp1111
a(I24
I24
I56
I88
I1
tp1112
a(I24
I16
I44
I116
I4
tp1113
a(I8
I36
I32
I112
I4
tp1114
a(I16
I100
I36
I116
I7
tp1115
a(I44
I48
I60
I100
I1
tp1116
a(I36
I68
I60
I104
I6
tp1117
a(I44
I64
I60
I112
I6
tp1118
a(I40
I40
I60
I96
I4
tp1119
a(I36
I64
I56
I100
I9
tp1120
a(I12
I92
I32
I108
I8
tp1121
a(I32
I16
I48
I76
I1
tp1122
a(I4
I8
I28
I120
I5
tp1123
a(I20
I16
I48
I108
I3
tp1124
a(I12
I40
I52
I92
I6
tp1125
a(I44
I60
I60
I88
I7
tp1126
a(I44
I24
I60
I72
I5
tp1127
a(I24
I0
I52
I96
I9
tp1128
a(I20
I0
I60
I68
I5
tp1129
a(I36
I80
I60
I100
I0
tp1130
a(I28
I84
I56
I116
I8
tp1131
a(I20
I20
I40
I76
I3
tp1132
a(I24
I68
I52
I100
I4
tp1133
a(I24
I44
I60
I96
I7
tp1134
a(I0
I68
I48
I104
I7
tp1135
a(I16
I8
I32
I44
I9
tp1136
a(I28
I12
I48
I60
I6
tp1137
a(I12
I96
I44
I112
I5
tp1138
a(I8
I104
I48
I124
I0
tp1139
a(I4
I80
I60
I124
I4
tp1140
a(I24
I28
I52
I104
I0
tp1141
a(I28
I68
I52
I104
I1
tp1142
a(I24
I20
I52
I72
I6
tp1143
a(I8
I20
I40
I64
I9
tp1144
a(I44
I0
I60
I64
I2
tp1145
a(I4
I36
I32
I100
I7
tp1146
a(I28
I44
I56
I68
I2
tp1147
a(I44
I72
I60
I112
I7
tp1148
a(I16
I100
I56
I124
I4
tp1149
a(I36
I76
I52
I116
I1
tp1150
a(I36
I12
I60
I68
I5
tp1151
a(I28
I84
I52
I112
I6
tp1152
a(I28
I96
I52
I116
I7
tp1153
a(I12
I80
I36
I96
I6
tp1154
a(I12
I24
I40
I104
I4
tp1155
a(I4
I44
I24
I96
I1
tp1156
a(I32
I0
I56
I56
I5
tp1157
a(I40
I36
I60
I52
I8
tp1158
a(I20
I96
I36
I116
I5
tp1159
a(I24
I100
I40
I124
I9
tp1160
a(I12
I40
I36
I96
I5
tp1161
a(I32
I92
I48
I116
I9
tp1162
a(I0
I100
I20
I116
I2
tp1163
a(I4
I76
I48
I104
I2
tp1164
a(I36
I8
I56
I112
I1
tp1165
a(I44
I24
I60
I68
I9
tp1166
a(I24
I64
I56
I80
I6
tp1167
a(I20
I44
I36
I96
I0
tp1168
a(I12
I28
I36
I92
I1
tp1169
a(I20
I56
I56
I92
I2
tp1170
a(I4
I20
I24
I36
I0
tp1171
a(I0
I36
I28
I64
I7
tp1172
a(I24
I84
I48
I120
I0
tp1173
a(I20
I88
I40
I108
I2
tp1174
a(I44
I68
I60
I84
I3
tp1175
a(I12
I68
I52
I88
I4
tp1176
a(I40
I68
I56
I92
I4
tp1177
a(I36
I92
I56
I112
I0
tp1178
a(I8
I100
I48
I116
I4
tp1179
a(I32
I20
I60
I96
I4
tp1180
a(I36
I0
I60
I36
I9
tp1181
a(I16
I40
I40
I72
I9
tp1182
a(I20
I20
I48
I80
I0
tp1183
a(I20
I56
I60
I116
I2
tp1184
a(I12
I92
I44
I108
I3
tp1185
a(I36
I68
I52
I112
I7
tp1186
a(I20
I16
I48
I88
I2
tp1187
a(I16
I80
I40
I108
I9
tp1188
a(I20
I0
I56
I120
I9
tp1189
a(I8
I4
I40
I104
I8
tp1190
a(I36
I44
I60
I120
I3
tp1191
a(I12
I20
I36
I84
I4
tp1192
a(I0
I72
I16
I92
I8
tp1193
a(I24
I24
I40
I116
I0
tp1194
a(I40
I64
I56
I108
I8
tp1195
a(I16
I20
I36
I52
I7
tp1196
a(I40
I88
I56
I108
I1
tp1197
a(I4
I96
I60
I124
I7
tp1198
a(I0
I24
I60
I104
I0
tp1199
a(I44
I44
I60
I64
I3
tp1200
a(I16
I56
I40
I116
I4
tp1201
a(I28
I32
I44
I96
I9
tp1202
a(I16
I12
I40
I120
I4
tp1203
a(I4
I44
I52
I68
I7
tp1204
a(I12
I8
I40
I116
I1
tp1205
a(I32
I60
I56
I100
I1
tp1206
a(I16
I92
I44
I124
I1
tp1207
a(I20
I20
I56
I124
I3
tp1208
a(I36
I76
I56
I104
I5
tp1209
a(I20
I88
I56
I124
I3
tp1210
a(I16
I52
I48
I124
I8
tp1211
a(I36
I60
I56
I84
I1
tp1212
a(I4
I28
I48
I108
I0
tp1213
a(I36
I92
I52
I124
I4
tp1214
a(I24
I36
I48
I120
I5
tp1215
a(I36
I108
I52
I124
I9
tp1216
a(I44
I76
I60
I92
I9
tp1217
a(I24
I68
I48
I112
I1
tp1218
a(I40
I16
I60
I32
I1
tp1219
a(I44
I36
I60
I124
I7
tp1220
a(I0
I100
I32
I124
I7
tp1221
a(I8
I0
I56
I44
I1
tp1222
a(I4
I56
I20
I116
I8
tp1223
a(I4
I32
I28
I116
I6
tp1224
a(I28
I68
I48
I116
I0
tp1225
a(I20
I96
I36
I116
I4
tp1226
a(I24
I52
I40
I120
I7
tp1227
a(I36
I40
I56
I120
I3
tp1228
a(I4
I48
I48
I100
I1
tp1229
a(I28
I104
I60
I120
I6
tp1230
a(I8
I8
I56
I40
I7
tp1231
a(I12
I36
I44
I88
I8
tp1232
a(I24
I4
I48
I84
I4
tp1233
a(I0
I36
I20
I60
I2
tp1234
a(I32
I92
I56
I120
I5
tp1235
a(I36
I32
I52
I56
I7
tp1236
a(I28
I40
I48
I76
I2
tp1237
a(I0
I100
I56
I116
I2
tp1238
a(I28
I92
I60
I124
I8
tp1239
a(I8
I8
I40
I64
I8
tp1240
a(I8
I84
I32
I120
I5
tp1241
a(I24
I4
I40
I72
I2
tp1242
a(I32
I80
I56
I120
I9
tp1243
a(I4
I60
I44
I100
I6
tp1244
a(I4
I52
I60
I108
I8
tp1245
a(I24
I76
I48
I116
I5
tp1246
a(I8
I88
I40
I108
I3
tp1247
a(I32
I92
I52
I108
I4
tp1248
a(I36
I60
I52
I96
I0
tp1249
a(I28
I80
I52
I104
I1
tp1250
a(I12
I24
I48
I52
I1
tp1251
a(I24
I52
I40
I76
I3
tp1252
a(I32
I76
I60
I108
I8
tp1253
a(I24
I32
I56
I120
I0
tp1254
a(I40
I108
I56
I124
I3
tp1255
a(I32
I52
I48
I120
I4
tp1256
a(I44
I60
I60
I104
I0
tp1257
a(I28
I80
I60
I104
I6
tp1258
a(I20
I72
I52
I104
I4
tp1259
a(I24
I36
I48
I104
I5
tp1260
a(I4
I28
I56
I104
I0
tp1261
a(I44
I4
I60
I68
I2
tp1262
a(I36
I96
I52
I124
I2
tp1263
a(I4
I24
I60
I84
I2
tp1264
a(I32
I76
I60
I108
I8
tp1265
a(I4
I4
I24
I56
I2
tp1266
a(I24
I12
I48
I44
I3
tp1267
a(I24
I48
I48
I72
I9
tp1268
a(I16
I76
I52
I112
I0
tp1269
a(I0
I24
I28
I104
I1
tp1270
a(I12
I80
I52
I104
I7
tp1271
a(I40
I52
I56
I104
I6
tp1272
a(I12
I16
I28
I52
I0
tp1273
a(I40
I64
I60
I84
I3
tp1274
a(I36
I104
I60
I124
I7
tp1275
a(I40
I40
I56
I104
I3
tp1276
a(I16
I56
I52
I120
I2
tp1277
a(I40
I56
I60
I72
I5
tp1278
a(I12
I104
I28
I124
I9
tp1279
a(I24
I8
I44
I80
I6
tp1280
a(I20
I52
I60
I116
I7
tp1281
a(I8
I8
I36
I40
I2
tp1282
a(I4
I64
I36
I112
I2
tp1283
a(I8
I48
I28
I80
I9
tp1284
a(I44
I108
I60
I124
I5
tp1285
a(I28
I60
I48
I92
I2
tp1286
a(I20
I12
I48
I116
I2
tp1287
a(I4
I24
I28
I44
I8
tp1288
a(I12
I24
I60
I112
I0
tp1289
a(I24
I44
I56
I88
I6
tp1290
a(I28
I16
I44
I108
I6
tp1291
a(I24
I8
I52
I68
I1
tp1292
a(I4
I68
I52
I104
I7
tp1293
a(I44
I64
I60
I96
I3
tp1294
a(I24
I40
I48
I72
I9
tp1295
a(I8
I20
I60
I84
I8
tp1296
a(I12
I20
I40
I76
I3
tp1297
a(I20
I76
I36
I120
I8
tp1298
a(I32
I92
I60
I120
I5
tp1299
a(I4
I96
I44
I120
I8
tp1300
a(I20
I4
I56
I88
I2
tp1301
a(I20
I64
I40
I120
I8
tp1302
a(I28
I44
I44
I68
I8
tp1303
a(I36
I12
I60
I68
I5
tp1304
a(I32
I104
I60
I124
I7
tp1305
a(I32
I32
I56
I56
I3
tp1306
a(I44
I68
I60
I100
I6
tp1307
a(I16
I24
I52
I84
I8
tp1308
a(I40
I64
I60
I108
I4
tp1309
a(I16
I24
I60
I64
I4
tp1310
a(I40
I72
I60
I104
I8
tp1311
a(I8
I104
I52
I120
I2
tp1312
a(I8
I48
I56
I76
I2
tp1313
a(I12
I0
I28
I68
I3
tp1314
a(I28
I44
I52
I116
I0
tp1315
a(I40
I16
I60
I108
I9
tp1316
a(I12
I8
I28
I64
I1
tp1317
a(I8
I4
I52
I112
I5
tp1318
a(I28
I12
I52
I52
I3
tp1319
a(I24
I48
I56
I108
I6
tp1320
a(I44
I72
I60
I112
I2
tp1321
a(I32
I84
I48
I112
I2
tp1322
a(I44
I108
I60
I124
I9
tp1323
a(I12
I44
I44
I80
I9
tp1324
a(I28
I72
I44
I124
I5
tp1325
a(I16
I60
I36
I124
I3
tp1326
a(I24
I100
I56
I120
I3
tp1327
a(I32
I60
I56
I100
I1
tp1328
a(I36
I80
I56
I124
I2
tp1329
a(I40
I108
I56
I124
I4
tp1330
a(I20
I60
I36
I124
I9
tp1331
a(I28
I64
I44
I96
I7
tp1332
a(I12
I52
I44
I72
I0
tp1333
a(I0
I48
I28
I120
I6
tp1334
a(I0
I84
I60
I100
I2
tp1335
a(I32
I28
I52
I64
I1
tp1336
a(I8
I52
I44
I92
I3
tp1337
a(I8
I12
I48
I108
I6
tp1338
a(I20
I56
I44
I124
I2
tp1339
a(I12
I108
I52
I124
I9
tp1340
a(I8
I80
I40
I96
I6
tp1341
a(I32
I100
I60
I120
I2
tp1342
a(I24
I84
I52
I108
I8
tp1343
a(I36
I56
I52
I116
I9
tp1344
a(I32
I80
I60
I108
I3
tp1345
a(I32
I56
I52
I120
I0
tp1346
a(I16
I20
I44
I120
I6
tp1347
a(I44
I36
I60
I92
I9
tp1348
a(I44
I48
I60
I124
I5
tp1349
a(I24
I20
I60
I120
I6
tp1350
a(I28
I48
I60
I84
I1
tp1351
a(I40
I92
I60
I116
I9
tp1352
a(I20
I80
I40
I120
I9
tp1353
a(I16
I92
I52
I124
I1
tp1354
a(I12
I48
I28
I100
I1
tp1355
a(I36
I72
I60
I124
I7
tp1356
a(I4
I96
I60
I124
I1
tp1357
a(I44
I8
I60
I32
I2
tp1358
a(I0
I92
I60
I124
I3
tp1359
a(I28
I12
I48
I64
I8
tp1360
a(I20
I32
I36
I56
I7
tp1361
a(I32
I4
I60
I32
I7
tp1362
a(I40
I100
I56
I116
I4
tp1363
a(I24
I100
I40
I116
I4
tp1364
a(I40
I36
I56
I76
I8
tp1365
a(I36
I4
I56
I40
I9
tp1366
a(I28
I60
I52
I100
I1
tp1367
a(I36
I16
I60
I100
I2
tp1368
a(I36
I88
I56
I112
I9
tp1369
a(I4
I64
I48
I84
I5
tp1370
a(I4
I108
I28
I124
I5
tp1371
a(I24
I68
I48
I108
I2
tp1372
a(I32
I80
I60
I96
I9
tp1373
a(I36
I104
I52
I120
I5
tp1374
a(I20
I88
I36
I112
I7
tp1375
a(I44
I52
I60
I124
I2
tp1376
a(I8
I28
I40
I52
I8
tp1377
a(I12
I36
I60
I64
I4
tp1378
a(I44
I104
I60
I124
I1
tp1379
a(I28
I64
I60
I124
I8
tp1380
a(I44
I32
I60
I116
I7
tp1381
a(I44
I108
I60
I124
I1
tp1382
a(I12
I24
I52
I120
I9
tp1383
a(I4
I36
I44
I68
I3
tp1384
a(I28
I12
I60
I116
I4
tp1385
a(I0
I48
I48
I120
I2
tp1386
a(I8
I68
I44
I104
I5
tp1387
a(I4
I104
I56
I120
I9
tp1388
a(I28
I4
I44
I56
I3
tp1389
a(I16
I48
I52
I92
I3
tp1390
a(I40
I56
I56
I124
I6
tp1391
a(I12
I40
I28
I96
I9
tp1392
a(I4
I96
I60
I124
I9
tp1393
a(I0
I28
I32
I92
I5
tp1394
a(I40
I64
I56
I112
I3
tp1395
a(I12
I20
I36
I100
I1
tp1396
a(I44
I108
I60
I124
I3
tp1397
a(I20
I40
I36
I80
I9
tp1398
a(I12
I88
I32
I108
I2
tp1399
a(I8
I88
I28
I108
I2
tp1400
a(I20
I104
I48
I124
I9
tp1401
a(I20
I56
I48
I104
I7
tp1402
a(I4
I60
I24
I124
I2
tp1403
a(I44
I40
I60
I84
I8
tp1404
a(I40
I92
I56
I112
I4
tp1405
a(I40
I36
I60
I80
I4
tp1406
a(I28
I88
I60
I104
I8
tp1407
a(I28
I4
I56
I88
I5
tp1408
a(I24
I4
I48
I52
I8
tp1409
a(I12
I88
I52
I120
I6
tp1410
a(I24
I32
I48
I68
I7
tp1411
a(I20
I28
I56
I72
I3
tp1412
a(I24
I56
I56
I92
I6
tp1413
a(I8
I108
I48
I124
I4
tp1414
a(I16
I44
I52
I100
I5
tp1415
a(I0
I48
I28
I104
I4
tp1416
a(I20
I20
I56
I84
I0
tp1417
a(I0
I28
I32
I92
I1
tp1418
a(I44
I20
I60
I108
I4
tp1419
a(I4
I100
I28
I116
I9
tp1420
a(I40
I24
I56
I68
I1
tp1421
a(I24
I48
I56
I72
I9
tp1422
a(I16
I16
I36
I80
I1
tp1423
a(I44
I56
I60
I84
I8
tp1424
a(I0
I104
I28
I120
I7
tp1425
a(I44
I16
I60
I80
I8
tp1426
a(I12
I100
I52
I124
I8
tp1427
a(I0
I32
I52
I100
I1
tp1428
a(I12
I48
I60
I76
I5
tp1429
a(I40
I24
I60
I40
I4
tp1430
a(I4
I40
I36
I96
I7
tp1431
a(I12
I44
I32
I76
I3
tp1432
a(I12
I68
I48
I116
I2
tp1433
a(I0
I88
I44
I112
I9
tp1434
a(I44
I104
I60
I124
I8
tp1435
a(I28
I12
I56
I80
I7
tp1436
a(I8
I68
I48
I124
I4
tp1437
a(I4
I24
I24
I84
I4
tp1438
a(I16
I40
I56
I60
I2
tp1439
a(I28
I72
I56
I92
I8
tp1440
a(I44
I8
I60
I120
I9
tp1441
a(I12
I0
I44
I84
I0
tp1442
a(I12
I32
I56
I108
I1
tp1443
a(I0
I68
I28
I88
I9
tp1444
a(I8
I48
I48
I96
I2
tp1445
a(I28
I40
I44
I124
I3
tp1446
a(I44
I72
I60
I124
I8
tp1447
a(I12
I52
I60
I84
I9
tp1448
a(I36
I40
I52
I60
I0
tp1449
a(I24
I100
I44
I120
I4
tp1450
a(I12
I32
I36
I124
I8
tp1451
a(I8
I64
I48
I96
I7
tp1452
a(I20
I44
I52
I120
I0
tp1453
a(I16
I20
I36
I108
I9
tp1454
a(I40
I56
I60
I88
I4
tp1455
a(I36
I100
I56
I116
I1
tp1456
a(I32
I92
I48
I120
I6
tp1457
a(I8
I24
I24
I116
I2
tp1458
a(I36
I60
I60
I80
I1
tp1459
a(I44
I0
I60
I124
I9
tp1460
a(I44
I32
I60
I92
I6
tp1461
a(I40
I100
I60
I116
I9
tp1462
a(I12
I108
I36
I124
I5
tp1463
a(I32
I72
I52
I124
I0
tp1464
a(I44
I64
I60
I92
I7
tp1465
a(I8
I80
I48
I120
I8
tp1466
a(I28
I48
I56
I68
I4
tp1467
a(I20
I24
I60
I84
I0
tp1468
a(I16
I104
I52
I124
I2
tp1469
a(I20
I0
I52
I16
I4
tp1470
a(I4
I8
I60
I92
I2
tp1471
a(I16
I72
I60
I112
I3
tp1472
a(I8
I88
I60
I112
I7
tp1473
a(I4
I60
I48
I108
I6
tp1474
a(I32
I16
I52
I120
I5
tp1475
a(I32
I12
I60
I36
I0
tp1476
a(I0
I108
I60
I124
I4
tp1477
a(I4
I60
I60
I96
I9
tp1478
a(I24
I88
I56
I108
I1
tp1479
a(I8
I68
I40
I84
I4
tp1480
a(I44
I104
I60
I120
I5
tp1481
a(I36
I44
I52
I96
I8
tp1482
a(I20
I108
I44
I124
I8
tp1483
a(I4
I32
I36
I116
I0
tp1484
a(I4
I56
I24
I96
I9
tp1485
a(I0
I12
I28
I120
I4
tp1486
a(I16
I56
I32
I104
I2
tp1487
a(I12
I64
I48
I120
I7
tp1488
a(I44
I56
I60
I88
I3
tp1489
a(I4
I20
I36
I96
I7
tp1490
a(I28
I92
I56
I108
I5
tp1491
a(I12
I56
I56
I96
I1
tp1492
a(I24
I88
I44
I104
I2
tp1493
a(I20
I84
I56
I124
I1
tp1494
a(I28
I84
I44
I112
I2
tp1495
a(I24
I12
I44
I60
I4
tp1496
a(I36
I104
I52
I120
I0
tp1497
a(I8
I28
I48
I116
I0
tp1498
a(I32
I24
I56
I100
I2
tp1499
a(I12
I20
I56
I84
I4
tp1500
a(I0
I104
I32
I124
I6
tp1501
a(I32
I104
I56
I124
I0
tp1502
a(I28
I56
I52
I100
I7
tp1503
a(I44
I56
I60
I116
I9
tp1504
a(I36
I80
I52
I116
I8
tp1505
a(I24
I56
I60
I80
I7
tp1506
a(I24
I92
I44
I120
I2
tp1507
a(I40
I100
I60
I120
I4
tp1508
a(I28
I52
I56
I112
I0
tp1509
a(I12
I96
I40
I120
I9
tp1510
a(I12
I52
I44
I124
I9
tp1511
a(I28
I72
I52
I116
I4
tp1512
a(I0
I64
I40
I108
I9
tp1513
a(I4
I8
I32
I44
I8
tp1514
a(I40
I104
I60
I120
I8
tp1515
a(I12
I108
I44
I124
I2
tp1516
a(I28
I64
I60
I108
I8
tp1517
a(I40
I16
I56
I88
I5
tp1518
a(I16
I84
I40
I124
I8
tp1519
a(I28
I20
I48
I68
I9
tp1520
a(I20
I8
I44
I72
I7
tp1521
a(I28
I56
I44
I96
I6
tp1522
a(I8
I52
I32
I100
I0
tp1523
a(I16
I12
I32
I120
I2
tp1524
a(I12
I4
I44
I60
I8
tp1525
a(I4
I32
I36
I124
I2
tp1526
a(I44
I60
I60
I80
I1
tp1527
a(I0
I16
I28
I60
I4
tp1528
a(I20
I4
I60
I84
I1
tp1529
a(I8
I12
I60
I104
I0
tp1530
a(I24
I92
I56
I108
I5
tp1531
a(I12
I96
I36
I112
I2
tp1532
a(I40
I72
I56
I88
I5
tp1533
a(I32
I20
I60
I44
I8
tp1534
a(I4
I104
I60
I120
I1
tp1535
a(I40
I20
I60
I124
I2
tp1536
a(I36
I60
I56
I84
I9
tp1537
a(I0
I24
I20
I48
I1
tp1538
a(I28
I84
I44
I120
I4
tp1539
a(I32
I24
I56
I64
I0
tp1540
a(I20
I4
I56
I124
I7
tp1541
a(I32
I84
I60
I112
I2
tp1542
a(I4
I80
I44
I116
I6
tp1543
a(I44
I28
I60
I44
I2
tp1544
a(I16
I80
I32
I120
I9
tp1545
a(I40
I8
I60
I72
I2
tp1546
a(I4
I16
I36
I68
I3
tp1547
a(I4
I60
I60
I104
I9
tp1548
a(I40
I4
I60
I112
I9
tp1549
a(I0
I68
I28
I84
I6
tp1550
a(I16
I60
I36
I80
I0
tp1551
a(I24
I40
I44
I96
I5
tp1552
a(I16
I92
I60
I108
I3
tp1553
a(I36
I48
I60
I88
I2
tp1554
a(I20
I16
I56
I84
I4
tp1555
a(I0
I16
I44
I36
I3
tp1556
a(I8
I84
I60
I112
I1
tp1557
a(I20
I28
I48
I108
I2
tp1558
a(I32
I60
I60
I116
I6
tp1559
a(I32
I64
I52
I84
I7
tp1560
a(I36
I76
I56
I96
I5
tp1561
a(I20
I92
I56
I112
I8
tp1562
a(I44
I52
I60
I72
I6
tp1563
a(I20
I4
I44
I68
I9
tp1564
a(I44
I104
I60
I120
I2
tp1565
a(I24
I68
I52
I116
I5
tp1566
a(I28
I100
I44
I124
I9
tp1567
a(I32
I24
I52
I72
I4
tp1568
a(I24
I20
I44
I44
I0
tp1569
a(I4
I20
I44
I52
I4
tp1570
a(I16
I16
I56
I52
I5
tp1571
a(I28
I60
I56
I108
I3
tp1572
a(I20
I40
I36
I112
I3
tp1573
a(I44
I52
I60
I80
I8
tp1574
a(I4
I68
I24
I104
I7
tp1575
a(I40
I68
I56
I100
I5
tp1576
a(I4
I84
I28
I120
I5
tp1577
a(I28
I52
I52
I92
I3
tp1578
a(I44
I104
I60
I124
I1
tp1579
a(I40
I88
I60
I124
I2
tp1580
a(I4
I84
I36
I120
I1
tp1581
a(I32
I80
I52
I100
I9
tp1582
a(I4
I44
I44
I104
I4
tp1583
a(I16
I84
I48
I116
I5
tp1584
a(I0
I92
I40
I120
I4
tp1585
a(I0
I16
I52
I120
I6
tp1586
a(I12
I88
I60
I124
I8
tp1587
a(I4
I108
I52
I124
I4
tp1588
a(I36
I8
I60
I60
I1
tp1589
a(I28
I92
I52
I124
I8
tp1590
a(I24
I20
I60
I100
I4
tp1591
a(I20
I80
I44
I124
I2
tp1592
a(I8
I104
I28
I120
I0
tp1593
a(I4
I104
I48
I124
I3
tp1594
a(I32
I16
I52
I68
I3
tp1595
a(I44
I40
I60
I92
I5
tp1596
a(I4
I60
I40
I104
I7
tp1597
a(I32
I40
I48
I80
I7
tp1598
a(I4
I16
I36
I100
I9
tp1599
a(I8
I12
I52
I72
I3
tp1600
a(I44
I12
I60
I100
I0
tp1601
a(I16
I56
I56
I116
I8
tp1602
a(I4
I60
I52
I92
I3
tp1603
a(I24
I104
I48
I120
I5
tp1604
a(I32
I76
I56
I100
I2
tp1605
a(I32
I108
I52
I124
I6
tp1606
a(I36
I36
I60
I112
I9
tp1607
a(I20
I92
I48
I112
I8
tp1608
a(I8
I20
I56
I104
I2
tp1609
a(I24
I12
I60
I48
I5
tp1610
a(I20
I108
I60
I124
I3
tp1611
a(I44
I0
I60
I116
I3
tp1612
a(I4
I24
I60
I60
I9
tp1613
a(I36
I48
I60
I68
I6
tp1614
a(I44
I52
I60
I124
I4
tp1615
a(I4
I56
I40
I124
I6
tp1616
a(I24
I28
I56
I96
I5
tp1617
a(I32
I92
I60
I124
I4
tp1618
a(I16
I84
I48
I120
I5
tp1619
a(I4
I104
I56
I124
I3
tp1620
a(I36
I76
I60
I92
I8
tp1621
a(I16
I24
I40
I56
I1
tp1622
a(I40
I108
I56
I124
I1
tp1623
a(I24
I0
I52
I84
I7
tp1624
a(I20
I88
I44
I108
I0
tp1625
a(I24
I68
I60
I84
I5
tp1626
a(I8
I20
I24
I76
I2
tp1627
a(I20
I16
I36
I72
I0
tp1628
a(I8
I0
I44
I120
I5
tp1629
a(I40
I76
I60
I112
I3
tp1630
a(I4
I92
I32
I124
I9
tp1631
a(I40
I40
I60
I84
I7
tp1632
a(I32
I60
I60
I88
I3
tp1633
a(I36
I36
I60
I104
I2
tp1634
a(I36
I20
I56
I84
I3
tp1635
a(I8
I44
I44
I68
I9
tp1636
a(I0
I84
I60
I100
I4
tp1637
a(I24
I64
I44
I108
I0
tp1638
a(I28
I40
I60
I104
I3
tp1639
a(I8
I36
I24
I112
I8
tp1640
a(I8
I100
I56
I116
I1
tp1641
a(I0
I84
I56
I124
I9
tp1642
a(I16
I60
I48
I96
I2
tp1643
a(I4
I56
I44
I100
I6
tp1644
a(I4
I12
I24
I44
I1
tp1645
a(I28
I108
I52
I124
I9
tp1646
a(I40
I72
I56
I92
I5
tp1647
a(I12
I44
I36
I64
I9
tp1648
a(I40
I76
I60
I104
I5
tp1649
a(I12
I80
I28
I124
I9
tp1650
a(I16
I108
I52
I124
I3
tp1651
a(I40
I56
I56
I88
I1
tp1652
a(I44
I44
I60
I120
I9
tp1653
a(I4
I48
I56
I112
I1
tp1654
a(I16
I32
I56
I108
I5
tp1655
a(I28
I40
I56
I56
I9
tp1656
a(I24
I80
I56
I124
I4
tp1657
a(I20
I104
I60
I120
I8
tp1658
a(I12
I96
I40
I124
I5
tp1659
a(I32
I68
I48
I108
I9
tp1660
a(I32
I48
I56
I80
I3
tp1661
a(I12
I36
I44
I124
I8
tp1662
a(I36
I60
I56
I84
I9
tp1663
a(I4
I48
I36
I112
I9
tp1664
a(I36
I76
I52
I116
I8
tp1665
a(I4
I60
I40
I104
I3
tp1666
a(I20
I48
I44
I96
I2
tp1667
a(I12
I0
I60
I16
I9
tp1668
a(I24
I4
I52
I100
I5
tp1669
a(I4
I92
I48
I120
I6
tp1670
a(I28
I0
I44
I120
I0
tp1671
a(I12
I84
I40
I124
I7
tp1672
a(I12
I68
I28
I112
I2
tp1673
a(I44
I4
I60
I124
I9
tp1674
a(I40
I76
I56
I92
I9
tp1675
a(I8
I40
I28
I112
I0
tp1676
a(I0
I104
I20
I120
I5
tp1677
a(I32
I28
I60
I88
I0
tp1678
a(I24
I16
I48
I68
I8
tp1679
a(I32
I100
I52
I120
I6
tp1680
a(I24
I36
I56
I84
I1
tp1681
a(I0
I72
I24
I112
I7
tp1682
a(I24
I20
I60
I116
I6
tp1683
a(I28
I88
I56
I112
I8
tp1684
a(I0
I68
I52
I92
I2
tp1685
a(I8
I12
I32
I112
I4
tp1686
a(I40
I12
I56
I72
I1
tp1687
a(I44
I96
I60
I120
I1
tp1688
a(I28
I68
I56
I112
I0
tp1689
a(I8
I24
I24
I104
I3
tp1690
a(I16
I92
I48
I116
I3
tp1691
a(I36
I48
I52
I124
I2
tp1692
a(I40
I72
I60
I124
I1
tp1693
a(I16
I0
I48
I76
I8
tp1694
a(I28
I12
I48
I60
I2
tp1695
a(I16
I72
I36
I92
I2
tp1696
a(I24
I20
I48
I76
I5
tp1697
a(I44
I24
I60
I112
I8
tp1698
a(I40
I0
I56
I92
I5
tp1699
a(I44
I20
I60
I108
I5
tp1700
a(I36
I16
I56
I48
I2
tp1701
a(I32
I64
I60
I124
I3
tp1702
a(I0
I36
I16
I56
I7
tp1703
a(I0
I92
I60
I108
I4
tp1704
a(I16
I40
I44
I108
I3
tp1705
a(I8
I24
I44
I96
I1
tp1706
a(I36
I60
I56
I100
I2
tp1707
a(I32
I72
I56
I96
I0
tp1708
a(I12
I60
I48
I116
I0
tp1709
a(I16
I36
I40
I120
I1
tp1710
a(I20
I88
I44
I104
I2
tp1711
a(I20
I36
I56
I60
I3
tp1712
a(I36
I52
I60
I80
I5
tp1713
a(I24
I48
I52
I72
I0
tp1714
a(I12
I84
I36
I120
I5
tp1715
a(I44
I92
I60
I112
I3
tp1716
a(I44
I52
I60
I72
I8
tp1717
a(I16
I20
I32
I92
I9
tp1718
a(I8
I40
I36
I108
I4
tp1719
a(I24
I20
I44
I56
I2
tp1720
a(I44
I56
I60
I72
I5
tp1721
a(I4
I8
I56
I100
I9
tp1722
a(I0
I0
I44
I88
I5
tp1723
a(I16
I76
I44
I116
I7
tp1724
a(I20
I84
I56
I100
I9
tp1725
a(I20
I100
I52
I116
I0
tp1726
a(I40
I8
I56
I112
I4
tp1727
a(I12
I60
I36
I88
I1
tp1728
a(I36
I40
I52
I92
I2
tp1729
a(I40
I20
I56
I116
I2
tp1730
a(I0
I28
I36
I120
I1
tp1731
a(I4
I8
I52
I56
I4
tp1732
a(I8
I96
I44
I124
I5
tp1733
a(I4
I104
I32
I124
I4
tp1734
a(I40
I28
I60
I52
I9
tp1735
a(I24
I52
I52
I104
I5
tp1736
a(I36
I8
I56
I96
I3
tp1737
a(I44
I24
I60
I80
I9
tp1738
a(I32
I28
I60
I88
I6
tp1739
a(I28
I24
I44
I88
I6
tp1740
a(I12
I64
I40
I88
I8
tp1741
a(I8
I52
I56
I100
I0
tp1742
a(I0
I96
I24
I124
I3
tp1743
a(I4
I52
I44
I88
I9
tp1744
a(I0
I32
I24
I84
I4
tp1745
a(I28
I36
I52
I92
I0
tp1746
a(I36
I24
I60
I80
I6
tp1747
a(I40
I56
I56
I116
I0
tp1748
a(I8
I60
I44
I108
I8
tp1749
a(I40
I76
I60
I92
I8
tp1750
a(I32
I100
I56
I116
I5
tp1751
a(I36
I108
I60
I124
I6
tp1752
a(I12
I84
I28
I100
I9
tp1753
a(I12
I16
I36
I104
I8
tp1754
a(I0
I60
I24
I120
I7
tp1755
a(I16
I100
I56
I116
I8
tp1756
a(I32
I40
I52
I72
I2
tp1757
a(I16
I72
I60
I96
I1
tp1758
a(I24
I16
I40
I60
I8
tp1759
a(I40
I60
I56
I104
I9
tp1760
a(I0
I100
I28
I120
I4
tp1761
a(I8
I52
I32
I124
I1
tp1762
a(I24
I68
I48
I116
I4
tp1763
a(I24
I4
I48
I108
I5
tp1764
a(I28
I76
I60
I112
I7
tp1765
a(I24
I36
I48
I80
I9
tp1766
a(I12
I48
I44
I104
I2
tp1767
a(I28
I20
I48
I40
I8
tp1768
a(I28
I28
I52
I72
I9
tp1769
a(I24
I88
I48
I104
I9
tp1770
a(I32
I12
I48
I92
I5
tp1771
a(I16
I76
I60
I104
I0
tp1772
a(I36
I16
I56
I48
I0
tp1773
a(I8
I12
I36
I60
I8
tp1774
a(I20
I64
I40
I80
I3
tp1775
a(I24
I56
I48
I96
I6
tp1776
a(I20
I104
I52
I120
I8
tp1777
a(I36
I28
I60
I84
I9
tp1778
a(I4
I28
I56
I92
I1
tp1779
a(I20
I12
I56
I32
I7
tp1780
a(I4
I100
I24
I124
I0
tp1781
a(I36
I32
I60
I68
I0
tp1782
a(I44
I84
I60
I100
I6
tp1783
a(I40
I28
I60
I60
I9
tp1784
a(I0
I8
I40
I116
I0
tp1785
a(I44
I64
I60
I88
I0
tp1786
a(I24
I92
I56
I116
I0
tp1787
a(I0
I48
I48
I72
I8
tp1788
a(I44
I28
I60
I72
I5
tp1789
a(I12
I20
I32
I112
I0
tp1790
a(I32
I68
I56
I108
I3
tp1791
a(I16
I84
I60
I120
I4
tp1792
a(I24
I4
I48
I60
I6
tp1793
a(I40
I32
I60
I108
I9
tp1794
a(I16
I88
I36
I108
I1
tp1795
a(I16
I36
I32
I52
I0
tp1796
a(I16
I8
I40
I96
I0
tp1797
a(I24
I12
I60
I60
I5
tp1798
a(I28
I76
I44
I116
I9
tp1799
a(I0
I100
I20
I124
I4
tp1800
a(I36
I48
I56
I88
I4
tp1801
a(I44
I0
I60
I100
I2
tp1802
a(I8
I92
I44
I112
I6
tp1803
a(I40
I92
I56
I120
I4
tp1804
a(I24
I28
I52
I104
I1
tp1805
a(I0
I0
I48
I104
I6
tp1806
a(I44
I8
I60
I64
I0
tp1807
a(I40
I36
I60
I112
I9
tp1808
a(I8
I92
I32
I108
I9
tp1809
a(I32
I40
I60
I116
I9
tp1810
a(I0
I92
I32
I116
I9
tp1811
a(I8
I76
I40
I112
I3
tp1812
a(I4
I24
I28
I44
I5
tp1813
a(I24
I28
I48
I76
I1
tp1814
a(I12
I80
I44
I108
I8
tp1815
a(I40
I64
I60
I88
I2
tp1816
a(I28
I72
I56
I120
I6
tp1817
a(I8
I96
I60
I124
I8
tp1818
a(I16
I88
I44
I104
I3
tp1819
a(I32
I8
I52
I100
I8
tp1820
a(I8
I24
I40
I112
I9
tp1821
a(I16
I84
I32
I104
I0
tp1822
a(I0
I8
I36
I28
I8
tp1823
a(I36
I48
I60
I88
I4
tp1824
a(I16
I84
I52
I120
I2
tp1825
a(I32
I12
I52
I28
I6
tp1826
a(I24
I20
I40
I116
I8
tp1827
a(I24
I4
I44
I40
I6
tp1828
a(I16
I56
I52
I108
I2
tp1829
a(I20
I88
I44
I112
I7
tp1830
a(I20
I4
I48
I120
I5
tp1831
a(I20
I24
I52
I76
I5
tp1832
a(I40
I32
I60
I100
I9
tp1833
a(I20
I60
I60
I96
I7
tp1834
a(I40
I36
I56
I124
I6
tp1835
a(I0
I104
I44
I124
I9
tp1836
a(I44
I100
I60
I124
I8
tp1837
a(I0
I24
I60
I80
I2
tp1838
a(I32
I4
I52
I72
I6
tp1839
a(I24
I36
I56
I84
I0
tp1840
a(I0
I68
I40
I112
I0
tp1841
a(I8
I92
I48
I112
I7
tp1842
a(I28
I16
I56
I100
I2
tp1843
a(I20
I16
I36
I60
I4
tp1844
a(I40
I48
I56
I88
I5
tp1845
a(I44
I0
I60
I88
I6
tp1846
a(I4
I40
I36
I112
I7
tp1847
a(I40
I56
I60
I120
I4
tp1848
a(I4
I72
I40
I108
I8
tp1849
a(I20
I20
I52
I72
I7
tp1850
a(I16
I36
I52
I108
I9
tp1851
a(I4
I68
I60
I108
I8
tp1852
a(I4
I84
I32
I104
I3
tp1853
a(I24
I100
I48
I116
I2
tp1854
a(I44
I8
I60
I28
I9
tp1855
a(I44
I12
I60
I112
I1
tp1856
a(I20
I20
I56
I100
I3
tp1857
a(I12
I88
I40
I116
I8
tp1858
a(I36
I24
I52
I84
I1
tp1859
a(I8
I84
I28
I124
I8
tp1860
a(I36
I72
I60
I96
I4
tp1861
a(I40
I16
I60
I96
I3
tp1862
a(I40
I92
I60
I112
I3
tp1863
a(I20
I88
I36
I120
I9
tp1864
a(I32
I100
I48
I120
I0
tp1865
a(I40
I36
I56
I116
I2
tp1866
a(I12
I92
I40
I120
I6
tp1867
a(I28
I52
I44
I100
I8
tp1868
a(I8
I80
I48
I120
I7
tp1869
a(I8
I20
I52
I120
I0
tp1870
a(I4
I100
I32
I116
I9
tp1871
a(I40
I64
I60
I84
I8
tp1872
a(I4
I40
I32
I112
I3
tp1873
a(I40
I64
I60
I84
I4
tp1874
a(I4
I52
I60
I108
I7
tp1875
a(I16
I4
I52
I32
I9
tp1876
a(I36
I56
I56
I108
I1
tp1877
a(I40
I0
I60
I84
I8
tp1878
a(I0
I4
I16
I72
I2
tp1879
a(I36
I72
I60
I112
I4
tp1880
a(I4
I52
I28
I76
I9
tp1881
a(I32
I84
I56
I100
I3
tp1882
a(I4
I32
I48
I92
I1
tp1883
a(I16
I68
I32
I108
I4
tp1884
a(I16
I44
I56
I68
I6
tp1885
a(I12
I8
I56
I88
I8
tp1886
a(I20
I88
I40
I116
I6
tp1887
a(I16
I24
I60
I84
I9
tp1888
a(I44
I76
I60
I116
I3
tp1889
a(I36
I92
I52
I120
I4
tp1890
a(I20
I96
I40
I112
I0
tp1891
a(I8
I48
I56
I108
I2
tp1892
a(I16
I56
I36
I112
I9
tp1893
a(I0
I92
I20
I112
I6
tp1894
a(I40
I80
I60
I124
I5
tp1895
a(I16
I36
I36
I108
I0
tp1896
a(I28
I0
I52
I80
I9
tp1897
a(I12
I16
I48
I108
I5
tp1898
a(I16
I32
I56
I116
I7
tp1899
a(I16
I40
I44
I68
I2
tp1900
a(I4
I84
I52
I100
I4
tp1901
a(I12
I84
I48
I108
I3
tp1902
a(I0
I28
I48
I80
I2
tp1903
a(I16
I104
I52
I124
I4
tp1904
a(I16
I32
I52
I92
I6
tp1905
a(I40
I84
I56
I104
I5
tp1906
a(I44
I24
I60
I108
I7
tp1907
a(I0
I68
I20
I92
I0
tp1908
a(I36
I92
I60
I116
I5
tp1909
a(I24
I56
I56
I92
I7
tp1910
a(I24
I44
I56
I68
I8
tp1911
a(I40
I16
I60
I80
I6
tp1912
a(I36
I36
I52
I84
I2
tp1913
a(I16
I92
I52
I124
I0
tp1914
a(I40
I52
I60
I92
I5
tp1915
a(I8
I100
I56
I120
I0
tp1916
a(I40
I40
I60
I120
I1
tp1917
a(I44
I68
I60
I124
I4
tp1918
a(I28
I104
I56
I124
I4
tp1919
a(I16
I84
I52
I108
I3
tp1920
a(I40
I60
I56
I104
I6
tp1921
a(I32
I60
I52
I100
I2
tp1922
a(I4
I76
I52
I120
I6
tp1923
a(I16
I100
I48
I116
I7
tp1924
a(I20
I24
I40
I80
I4
tp1925
a(I8
I16
I56
I96
I4
tp1926
a(I8
I64
I36
I108
I9
tp1927
a(I0
I32
I48
I76
I9
tp1928
a(I28
I88
I60
I104
I5
tp1929
a(I12
I88
I60
I116
I9
tp1930
a(I0
I88
I48
I124
I3
tp1931
a(I16
I56
I60
I84
I5
tp1932
a(I32
I64
I60
I104
I1
tp1933
a(I12
I88
I28
I104
I6
tp1934
a(I36
I20
I56
I88
I4
tp1935
a(I28
I56
I48
I88
I8
tp1936
a(I36
I88
I60
I108
I9
tp1937
a(I20
I40
I48
I92
I9
tp1938
a(I24
I64
I52
I116
I5
tp1939
a(I32
I40
I48
I104
I9
tp1940
a(I36
I24
I60
I112
I5
tp1941
a(I24
I52
I40
I96
I8
tp1942
a(I16
I92
I44
I124
I5
tp1943
a(I28
I20
I52
I52
I4
tp1944
a(I32
I104
I48
I120
I4
tp1945
a(I24
I0
I40
I72
I2
tp1946
a(I8
I60
I44
I80
I3
tp1947
a(I36
I100
I56
I124
I0
tp1948
a(I12
I44
I48
I72
I2
tp1949
a(I20
I92
I60
I124
I0
tp1950
a(I24
I80
I56
I120
I3
tp1951
a(I28
I0
I56
I44
I4
tp1952
a(I44
I24
I60
I100
I3
tp1953
a(I28
I100
I44
I116
I1
tp1954
a(I8
I72
I52
I100
I9
tp1955
a(I32
I64
I52
I112
I8
tp1956
a(I36
I68
I56
I92
I2
tp1957
a(I36
I76
I52
I100
I8
tp1958
a(I24
I48
I48
I116
I5
tp1959
a(I20
I80
I48
I116
I6
tp1960
a(I36
I16
I52
I100
I1
tp1961
a(I32
I16
I60
I48
I1
tp1962
a(I8
I104
I32
I120
I0
tp1963
a(I32
I96
I60
I120
I2
tp1964
a(I36
I28
I60
I72
I7
tp1965
a(I40
I0
I60
I36
I7
tp1966
a(I4
I0
I28
I120
I5
tp1967
a(I24
I16
I40
I88
I6
tp1968
a(I24
I60
I48
I92
I1
tp1969
a(I32
I52
I60
I96
I2
tp1970
a(I0
I88
I44
I104
I0
tp1971
a(I12
I20
I40
I92
I5
tp1972
a(I8
I88
I36
I124
I2
tp1973
a(I16
I96
I44
I112
I9
tp1974
a(I4
I80
I28
I96
I7
tp1975
a(I16
I108
I52
I124
I9
tp1976
a(I28
I108
I52
I124
I1
tp1977
a(I36
I100
I60
I124
I4
tp1978
a(I24
I16
I40
I76
I4
tp1979
a(I44
I68
I60
I124
I4
tp1980
a(I36
I0
I56
I124
I4
tp1981
a(I16
I56
I60
I84
I6
tp1982
a(I44
I72
I60
I100
I8
tp1983
a(I20
I84
I44
I108
I2
tp1984
a(I8
I64
I24
I84
I2
tp1985
a(I40
I76
I56
I100
I2
tp1986
a(I8
I88
I40
I112
I5
tp1987
a(I40
I32
I60
I88
I4
tp1988
a(I44
I44
I60
I60
I1
tp1989
a(I44
I108
I60
I124
I1
tp1990
a(I12
I12
I60
I96
I5
tp1991
a(I28
I4
I56
I80
I9
tp1992
a(I0
I0
I20
I108
I8
tp1993
a(I20
I96
I56
I116
I8
tp1994
a(I24
I68
I56
I124
I8
tp1995
a(I40
I4
I56
I28
I0
tp1996
a(I32
I60
I60
I116
I5
tp1997
a(I12
I80
I52
I124
I3
tp1998
a(I4
I72
I44
I104
I2
tp1999
a(I16
I60
I56
I80
I8
tp2000
a(I40
I40
I60
I76
I2
tp2001
a(I28
I56
I44
I76
I4
tp2002
a(I28
I16
I60
I92
I9
tp2003
a(I8
I80
I32
I120
I4
tp2004
a(I32
I16
I52
I116
I1
tp2005
a(I16
I44
I32
I92
I7
tp2006
a(I40
I80
I60
I108
I5
tp2007
a(I36
I100
I56
I116
I7
tp2008
a(I40
I32
I56
I104
I6
tp2009
a(I28
I56
I48
I80
I7
tp2010
a(I0
I16
I60
I76
I1
tp2011
a(I44
I28
I60
I44
I2
tp2012
a(I16
I68
I32
I124
I2
tp2013
a(I40
I68
I56
I92
I7
tp2014
a(I8
I56
I52
I124
I7
tp2015
a(I36
I64
I56
I116
I8
tp2016
a(I24
I108
I48
I124
I3
tp2017
a(I12
I36
I52
I112
I2
tp2018
a(I44
I36
I60
I84
I6
tp2019
a(I4
I48
I60
I68
I6
tp2020
a(I40
I108
I56
I124
I5
tp2021
a(I8
I8
I48
I84
I0
tp2022
a(I24
I36
I60
I84
I9
tp2023
a(I12
I68
I40
I96
I6
tp2024
a(I40
I4
I60
I124
I5
tp2025
a(I4
I4
I44
I48
I8
tp2026
a(I8
I68
I48
I96
I5
tp2027
a(I32
I64
I52
I92
I5
tp2028
a(I36
I52
I52
I96
I4
tp2029
a(I8
I72
I36
I116
I2
tp2030
a(I8
I64
I32
I108
I5
tp2031
a(I4
I76
I44
I116
I5
tp2032
a(I0
I72
I40
I116
I6
tp2033
a(I28
I8
I56
I104
I2
tp2034
a(I24
I16
I60
I76
I2
tp2035
a(I40
I44
I56
I100
I9
tp2036
a(I0
I0
I44
I108
I5
tp2037
a(I12
I92
I48
I120
I9
tp2038
a(I12
I80
I44
I100
I7
tp2039
a(I20
I40
I48
I60
I8
tp2040
a(I28
I76
I44
I124
I9
tp2041
a(I28
I72
I44
I100
I8
tp2042
a(I32
I88
I56
I124
I7
tp2043
a(I32
I92
I48
I112
I6
tp2044
a(I28
I72
I48
I100
I4
tp2045
a(I40
I0
I60
I40
I1
tp2046
a(I28
I20
I52
I120
I3
tp2047
a(I20
I108
I44
I124
I2
tp2048
a(I28
I24
I48
I120
I6
tp2049
a(I36
I68
I56
I116
I1
tp2050
a(I40
I108
I56
I124
I5
tp2051
a(I40
I52
I60
I88
I3
tp2052
a(I8
I52
I60
I120
I7
tp2053
a(I4
I72
I60
I116
I0
tp2054
a(I40
I96
I56
I120
I7
tp2055
a(I12
I8
I40
I72
I3
tp2056
a(I32
I52
I60
I116
I7
tp2057
a(I12
I92
I28
I120
I9
tp2058
a(I32
I0
I48
I120
I0
tp2059
a(I4
I84
I32
I100
I8
tp2060
a(I28
I8
I44
I40
I6
tp2061
a(I4
I20
I56
I100
I5
tp2062
a(I8
I36
I56
I68
I0
tp2063
a(I36
I44
I56
I108
I8
tp2064
a(I28
I80
I44
I100
I5
tp2065
a(I36
I48
I52
I104
I1
tp2066
a(I16
I72
I60
I92
I0
tp2067
a(I28
I32
I60
I56
I0
tp2068
a(I4
I8
I56
I112
I3
tp2069
a(I44
I12
I60
I80
I9
tp2070
a(I8
I92
I60
I112
I2
tp2071
a(I36
I52
I60
I112
I5
tp2072
a(I16
I108
I52
I124
I2
tp2073
a(I36
I64
I60
I104
I2
tp2074
a(I0
I96
I36
I124
I2
tp2075
a(I0
I0
I60
I24
I4
tp2076
a(I32
I96
I56
I124
I4
tp2077
a(I8
I88
I44
I120
I8
tp2078
a(I40
I60
I60
I76
I1
tp2079
a(I36
I76
I60
I108
I3
tp2080
a(I24
I76
I52
I108
I1
tp2081
a(I16
I88
I32
I112
I9
tp2082
a(I32
I100
I56
I120
I9
tp2083
a(I20
I56
I44
I84
I2
tp2084
a(I16
I60
I32
I104
I2
tp2085
a(I8
I4
I36
I80
I7
tp2086
a(I0
I56
I28
I76
I1
tp2087
a(I20
I68
I48
I108
I8
tp2088
a(I0
I8
I16
I32
I9
tp2089
a(I40
I84
I60
I100
I7
tp2090
a(I44
I24
I60
I56
I4
tp2091
a(I16
I60
I44
I100
I7
tp2092
a(I20
I32
I36
I112
I7
tp2093
a(I28
I56
I44
I108
I2
tp2094
a(I16
I8
I48
I48
I2
tp2095
a(I8
I72
I56
I92
I8
tp2096
a(I20
I52
I48
I116
I3
tp2097
a(I44
I40
I60
I64
I5
tp2098
a(I44
I72
I60
I124
I4
tp2099
a(I8
I92
I60
I112
I7
tp2100
a(I40
I40
I60
I108
I7
tp2101
a(I8
I104
I52
I120
I6
tp2102
a(I28
I96
I44
I120
I7
tp2103
a(I16
I100
I52
I116
I8
tp2104
a(I28
I80
I52
I120
I8
tp2105
a(I24
I44
I48
I80
I0
tp2106
a(I12
I68
I36
I124
I5
tp2107
a(I24
I28
I60
I76
I4
tp2108
a(I32
I84
I60
I112
I7
tp2109
a(I12
I84
I32
I124
I7
tp2110
a(I44
I32
I60
I68
I4
tp2111
a(I16
I108
I60
I124
I3
tp2112
a(I28
I84
I60
I124
I4
tp2113
a(I24
I0
I56
I100
I8
tp2114
a(I12
I92
I60
I124
I0
tp2115
a(I0
I8
I60
I108
I2
tp2116
a(I20
I64
I40
I84
I2
tp2117
a(I8
I60
I40
I96
I2
tp2118
a(I40
I80
I60
I104
I2
tp2119
a(I44
I8
I60
I72
I3
tp2120
a(I16
I60
I36
I80
I2
tp2121
a(I4
I20
I40
I72
I9
tp2122
a(I20
I16
I40
I40
I4
tp2123
a(I32
I96
I48
I120
I9
tp2124
a(I4
I44
I24
I76
I1
tp2125
a(I8
I36
I28
I80
I9
tp2126
a(I0
I92
I36
I120
I5
tp2127
a(I0
I80
I48
I116
I9
tp2128
a(I4
I56
I60
I104
I0
tp2129
a(I0
I16
I16
I48
I2
tp2130
a(I28
I40
I44
I76
I8
tp2131
a(I32
I12
I56
I100
I9
tp2132
a(I12
I68
I56
I92
I8
tp2133
a(I12
I108
I56
I124
I8
tp2134
a(I28
I96
I48
I120
I2
tp2135
a(I28
I76
I52
I100
I6
tp2136
a(I36
I12
I52
I40
I4
tp2137
a(I36
I60
I56
I116
I3
tp2138
a(I44
I36
I60
I124
I8
tp2139
a(I16
I28
I56
I104
I2
tp2140
a(I28
I100
I56
I116
I9
tp2141
a(I12
I28
I40
I48
I7
tp2142
a(I36
I76
I52
I112
I3
tp2143
a(I32
I88
I52
I104
I2
tp2144
a(I8
I68
I36
I104
I1
tp2145
a(I40
I64
I56
I124
I8
tp2146
a(I32
I80
I48
I96
I1
tp2147
a(I0
I12
I48
I92
I9
tp2148
a(I8
I32
I56
I52
I9
tp2149
a(I36
I96
I52
I120
I6
tp2150
a(I28
I88
I44
I112
I6
tp2151
a(I12
I12
I60
I64
I5
tp2152
a(I28
I56
I48
I116
I0
tp2153
a(I44
I24
I60
I108
I0
tp2154
a(I12
I80
I52
I100
I3
tp2155
a(I0
I20
I56
I64
I2
tp2156
a(I16
I108
I44
I124
I8
tp2157
a(I16
I84
I44
I104
I0
tp2158
a(I8
I84
I60
I124
I6
tp2159
a(I28
I28
I52
I112
I3
tp2160
a(I0
I28
I32
I92
I4
tp2161
a(I28
I16
I44
I64
I3
tp2162
a(I4
I12
I52
I60
I9
tp2163
a(I32
I104
I56
I120
I4
tp2164
a(I4
I4
I28
I92
I5
tp2165
a(I4
I52
I56
I120
I6
tp2166
a(I32
I4
I48
I116
I1
tp2167
a(I44
I32
I60
I104
I0
tp2168
a(I20
I8
I40
I120
I4
tp2169
a(I12
I100
I52
I116
I9
tp2170
a(I12
I100
I44
I124
I5
tp2171
a(I32
I96
I52
I112
I9
tp2172
a(I4
I44
I52
I112
I0
tp2173
a(I32
I20
I52
I76
I4
tp2174
a(I40
I92
I56
I116
I8
tp2175
a(I36
I72
I56
I92
I9
tp2176
a(I36
I76
I56
I108
I0
tp2177
a(I24
I96
I48
I124
I9
tp2178
a(I4
I16
I44
I60
I7
tp2179
a(I8
I44
I60
I112
I5
tp2180
a(I44
I36
I60
I88
I8
tp2181
a(I4
I0
I48
I68
I1
tp2182
a(I8
I4
I44
I92
I9
tp2183
a(I16
I96
I44
I116
I3
tp2184
a(I32
I24
I52
I124
I6
tp2185
a(I24
I80
I56
I104
I0
tp2186
a(I36
I20
I52
I112
I9
tp2187
a(I44
I32
I60
I48
I3
tp2188
a(I4
I0
I24
I52
I8
tp2189
a(I44
I100
I60
I116
I9
tp2190
a(I24
I56
I48
I124
I5
tp2191
a(I32
I24
I48
I52
I6
tp2192
a(I20
I80
I56
I96
I3
tp2193
a(I12
I20
I44
I124
I0
tp2194
a(I32
I12
I48
I64
I7
tp2195
a(I40
I44
I56
I112
I9
tp2196
a(I0
I8
I24
I108
I8
tp2197
a(I4
I64
I20
I104
I9
tp2198
a(I44
I0
I60
I92
I6
tp2199
a(I24
I20
I48
I120
I0
tp2200
a(I16
I64
I36
I108
I8
tp2201
a(I36
I12
I56
I32
I0
tp2202
a(I16
I52
I44
I104
I4
tp2203
a(I24
I48
I56
I112
I7
tp2204
a(I28
I72
I52
I108
I5
tp2205
a(I0
I24
I20
I40
I3
tp2206
a(I36
I92
I52
I120
I7
tp2207
a(I12
I8
I60
I84
I7
tp2208
a(I32
I28
I56
I116
I7
tp2209
a(I32
I16
I56
I48
I7
tp2210
a(I24
I64
I60
I96
I8
tp2211
a(I32
I36
I52
I68
I7
tp2212
a(I28
I12
I56
I72
I3
tp2213
a(I4
I76
I52
I112
I8
tp2214
a(I4
I100
I36
I116
I2
tp2215
a(I40
I8
I56
I80
I1
tp2216
a(I20
I100
I52
I124
I9
tp2217
a(I8
I88
I52
I108
I7
tp2218
a(I36
I52
I52
I100
I7
tp2219
a(I40
I104
I56
I124
I4
tp2220
a(I28
I32
I60
I68
I6
tp2221
a(I16
I68
I40
I120
I9
tp2222
a(I12
I72
I56
I100
I4
tp2223
a(I0
I44
I16
I112
I8
tp2224
a(I32
I76
I60
I112
I1
tp2225
a(I40
I100
I60
I124
I3
tp2226
a(I44
I20
I60
I80
I9
tp2227
a(I4
I60
I32
I80
I3
tp2228
a(I20
I48
I52
I72
I6
tp2229
a(I40
I76
I56
I116
I4
tp2230
a(I16
I80
I56
I112
I8
tp2231
a(I32
I16
I52
I100
I2
tp2232
a(I8
I64
I32
I92
I2
tp2233
a(I40
I20
I60
I112
I2
tp2234
a(I8
I76
I40
I96
I6
tp2235
a(I12
I64
I56
I104
I0
tp2236
a(I40
I64
I60
I96
I2
tp2237
a(I4
I100
I32
I120
I8
tp2238
a(I36
I56
I52
I116
I9
tp2239
a(I20
I72
I60
I112
I8
tp2240
a(I0
I84
I32
I116
I3
tp2241
a(I8
I36
I36
I80
I7
tp2242
a(I16
I48
I48
I116
I5
tp2243
a(I16
I96
I56
I116
I8
tp2244
a(I0
I24
I32
I84
I9
tp2245
a(I8
I12
I44
I88
I4
tp2246
a(I40
I24
I56
I56
I9
tp2247
a(I28
I60
I52
I88
I7
tp2248
a(I44
I60
I60
I76
I6
tp2249
a(I20
I28
I44
I116
I2
tp2250
a(I28
I28
I56
I104
I0
tp2251
a(I16
I96
I52
I116
I0
tp2252
a(I36
I108
I56
I124
I7
tp2253
a(I44
I16
I60
I112
I7
tp2254
a(I32
I16
I48
I52
I3
tp2255
a(I36
I108
I56
I124
I6
tp2256
a(I28
I80
I52
I112
I7
tp2257
a(I28
I20
I56
I96
I6
tp2258
a(I12
I8
I56
I88
I6
tp2259
a(I12
I108
I52
I124
I9
tp2260
a(I4
I20
I40
I124
I3
tp2261
a(I20
I76
I48
I108
I8
tp2262
a(I0
I108
I32
I124
I5
tp2263
a(I40
I92
I56
I112
I5
tp2264
a(I8
I100
I48
I120
I9
tp2265
a(I36
I0
I56
I96
I9
tp2266
a(I16
I28
I32
I112
I5
tp2267
a(I12
I12
I48
I56
I4
tp2268
a(I12
I88
I44
I108
I1
tp2269
a(I16
I36
I48
I124
I2
tp2270
a(I32
I16
I56
I52
I3
tp2271
a(I24
I0
I52
I84
I9
tp2272
a(I40
I64
I60
I108
I2
tp2273
a(I8
I52
I48
I92
I5
tp2274
a(I24
I108
I60
I124
I8
tp2275
a(I12
I24
I48
I120
I7
tp2276
a(I32
I76
I48
I112
I2
tp2277
a(I8
I88
I24
I124
I5
tp2278
a(I24
I24
I52
I48
I8
tp2279
a(I36
I92
I56
I112
I2
tp2280
a(I0
I76
I24
I104
I4
tp2281
a(I28
I16
I52
I120
I8
tp2282
a(I28
I96
I60
I112
I8
tp2283
a(I40
I20
I56
I44
I4
tp2284
a(I28
I44
I48
I92
I0
tp2285
a(I28
I24
I52
I100
I1
tp2286
a(I24
I16
I52
I52
I3
tp2287
a(I40
I48
I56
I100
I1
tp2288
a(I12
I24
I56
I48
I5
tp2289
a(I40
I76
I56
I100
I9
tp2290
a(I24
I4
I44
I100
I3
tp2291
a(I12
I36
I60
I60
I0
tp2292
a(I32
I4
I48
I68
I5
tp2293
a(I16
I32
I48
I108
I7
tp2294
a(I12
I100
I44
I124
I8
tp2295
a(I0
I64
I56
I124
I9
tp2296
a(I32
I56
I48
I120
I9
tp2297
a(I44
I92
I60
I112
I2
tp2298
a(I8
I68
I60
I100
I8
tp2299
a(I16
I24
I60
I80
I6
tp2300
a(I8
I104
I60
I124
I8
tp2301
a(I44
I4
I60
I32
I4
tp2302
a(I28
I52
I48
I124
I9
tp2303
a(I20
I0
I60
I84
I8
tp2304
a(I32
I12
I48
I48
I8
tp2305
a(I40
I56
I56
I104
I9
tp2306
a(I36
I32
I60
I92
I7
tp2307
a(I12
I56
I28
I80
I9
tp2308
a(I0
I48
I32
I84
I9
tp2309
a(I40
I8
I60
I36
I5
tp2310
a(I24
I72
I60
I124
I6
tp2311
a(I4
I0
I32
I64
I8
tp2312
a(I32
I64
I56
I112
I9
tp2313
a(I32
I4
I56
I64
I9
tp2314
a(I16
I56
I40
I96
I2
tp2315
a(I28
I52
I60
I88
I1
tp2316
a(I36
I4
I52
I72
I8
tp2317
a(I40
I0
I60
I124
I6
tp2318
a(I24
I52
I60
I80
I1
tp2319
a(I20
I20
I60
I72
I0
tp2320
a(I0
I56
I24
I108
I0
tp2321
a(I12
I4
I28
I84
I9
tp2322
a(I28
I88
I48
I124
I1
tp2323
a(I4
I60
I56
I96
I8
tp2324
a(I8
I24
I32
I48
I4
tp2325
a(I40
I8
I60
I64
I0
tp2326
a(I16
I92
I60
I108
I3
tp2327
a(I32
I92
I60
I124
I4
tp2328
a(I16
I84
I32
I124
I3
tp2329
a(I16
I40
I40
I80
I2
tp2330
a(I40
I108
I60
I124
I5
tp2331
a(I12
I40
I52
I60
I8
tp2332
a(I36
I12
I60
I116
I3
tp2333
a(I40
I108
I56
I124
I9
tp2334
a(I36
I88
I52
I112
I0
tp2335
a(I36
I76
I60
I116
I0
tp2336
a(I16
I80
I36
I100
I8
tp2337
a(I32
I40
I52
I116
I7
tp2338
a(I44
I68
I60
I100
I9
tp2339
a(I24
I52
I60
I104
I6
tp2340
a(I8
I40
I24
I112
I2
tp2341
a(I4
I68
I24
I120
I2
tp2342
a(I24
I84
I52
I124
I6
tp2343
a(I8
I28
I48
I60
I0
tp2344
a(I24
I36
I52
I116
I6
tp2345
a(I24
I48
I40
I64
I8
tp2346
a(I24
I56
I44
I112
I1
tp2347
a(I44
I76
I60
I112
I3
tp2348
a(I28
I36
I52
I64
I1
tp2349
a(I8
I4
I56
I96
I9
tp2350
a(I44
I52
I60
I84
I0
tp2351
a(I32
I52
I52
I84
I4
tp2352
a(I36
I104
I60
I124
I8
tp2353
a(I24
I52
I40
I80
I8
tp2354
a(I36
I72
I56
I120
I1
tp2355
a(I16
I92
I60
I112
I2
tp2356
a(I36
I108
I56
I124
I7
tp2357
a(I36
I8
I60
I84
I7
tp2358
a(I16
I48
I32
I124
I6
tp2359
a(I0
I60
I24
I116
I5
tp2360
a(I16
I32
I44
I120
I8
tp2361
a(I32
I36
I52
I100
I1
tp2362
a(I32
I48
I56
I120
I9
tp2363
a(I40
I16
I60
I36
I3
tp2364
a(I0
I84
I16
I124
I2
tp2365
a(I20
I52
I40
I84
I9
tp2366
a(I24
I68
I40
I124
I1
tp2367
a(I28
I48
I60
I116
I6
tp2368
a(I32
I72
I60
I92
I2
tp2369
a(I36
I76
I60
I120
I8
tp2370
a(I36
I28
I52
I96
I4
tp2371
a(I40
I0
I56
I32
I3
tp2372
a(I4
I56
I52
I72
I6
tp2373
a(I24
I56
I40
I84
I9
tp2374
a(I4
I100
I32
I116
I6
tp2375
a(I12
I68
I36
I84
I7
tp2376
a(I40
I36
I56
I68
I5
tp2377
a(I0
I52
I52
I92
I5
tp2378
a(I44
I104
I60
I124
I4
tp2379
a(I20
I36
I44
I124
I9
tp2380
a(I44
I0
I60
I32
I6
tp2381
a(I20
I24
I48
I64
I3
tp2382
a(I36
I72
I52
I116
I2
tp2383
a(I36
I32
I56
I76
I7
tp2384
a(I40
I28
I60
I52
I4
tp2385
a(I36
I96
I56
I124
I7
tp2386
a(I40
I72
I60
I88
I5
tp2387
a(I12
I92
I56
I108
I2
tp2388
a(I28
I92
I56
I108
I1
tp2389
a(I36
I68
I56
I104
I5
tp2390
a(I20
I32
I52
I80
I1
tp2391
a(I36
I56
I60
I124
I6
tp2392
a(I16
I84
I60
I124
I6
tp2393
a(I4
I80
I40
I120
I6
tp2394
a(I44
I44
I60
I116
I2
tp2395
a(I12
I56
I36
I108
I7
tp2396
a(I16
I40
I56
I92
I6
tp2397
a(I16
I108
I60
I124
I3
tp2398
a(I16
I88
I60
I120
I6
tp2399
a(I16
I84
I60
I108
I6
tp2400
a(I28
I80
I60
I108
I1
tp2401
a(I16
I8
I56
I68
I0
tp2402
a(I16
I44
I40
I100
I1
tp2403
a(I40
I64
I56
I96
I8
tp2404
a(I12
I92
I56
I108
I0
tp2405
a(I28
I36
I48
I124
I0
tp2406
a(I8
I104
I56
I120
I7
tp2407
a(I0
I32
I36
I120
I7
tp2408
a(I8
I44
I24
I72
I3
tp2409
a(I0
I104
I40
I120
I4
tp2410
a(I8
I8
I28
I96
I0
tp2411
a(I16
I20
I52
I52
I2
tp2412
a(I20
I44
I60
I88
I3
tp2413
a(I40
I104
I56
I120
I6
tp2414
a(I24
I28
I48
I56
I1
tp2415
a(I36
I16
I52
I120
I1
tp2416
a(I20
I32
I44
I68
I1
tp2417
a(I20
I8
I44
I108
I2
tp2418
a(I28
I84
I52
I124
I3
tp2419
a(I0
I96
I16
I124
I5
tp2420
a(I20
I40
I56
I120
I8
tp2421
a(I36
I100
I60
I120
I3
tp2422
a(I36
I4
I56
I48
I4
tp2423
a(I12
I64
I48
I84
I0
tp2424
a(I40
I24
I60
I80
I4
tp2425
a(I16
I80
I40
I120
I3
tp2426
a(I8
I92
I60
I108
I2
tp2427
a(I4
I8
I24
I56
I3
tp2428
a(I36
I96
I60
I112
I1
tp2429
a(I16
I16
I40
I104
I3
tp2430
a(I32
I92
I48
I120
I4
tp2431
a(I20
I8
I52
I76
I1
tp2432
a(I36
I44
I52
I76
I8
tp2433
a(I40
I80
I56
I116
I7
tp2434
a(I32
I76
I48
I96
I7
tp2435
a(I12
I16
I52
I124
I5
tp2436
a(I32
I96
I60
I116
I8
tp2437
a(I36
I76
I52
I92
I2
tp2438
a(I12
I64
I28
I88
I3
tp2439
a(I8
I84
I36
I120
I8
tp2440
a(I16
I76
I48
I104
I9
tp2441
a(I32
I44
I48
I108
I5
tp2442
a(I0
I104
I28
I120
I9
tp2443
a(I32
I24
I52
I88
I4
tp2444
a(I44
I88
I60
I116
I7
tp2445
a(I32
I4
I52
I80
I6
tp2446
a(I28
I88
I44
I116
I3
tp2447
a(I36
I28
I60
I68
I1
tp2448
a(I8
I16
I32
I56
I5
tp2449
a(I12
I56
I40
I76
I7
tp2450
a(I36
I76
I60
I104
I6
tp2451
a(I20
I48
I40
I112
I9
tp2452
a(I12
I40
I48
I60
I2
tp2453
a(I4
I60
I44
I104
I1
tp2454
a(I28
I68
I56
I92
I6
tp2455
a(I32
I104
I60
I120
I2
tp2456
a(I44
I96
I60
I120
I3
tp2457
a(I8
I92
I48
I108
I7
tp2458
a(I0
I20
I20
I44
I6
tp2459
a(I40
I100
I60
I120
I5
tp2460
a(I28
I8
I48
I100
I4
tp2461
a(I20
I64
I40
I104
I3
tp2462
a(I20
I72
I60
I116
I8
tp2463
a(I44
I40
I60
I96
I3
tp2464
a(I44
I56
I60
I112
I3
tp2465
a(I44
I104
I60
I124
I5
tp2466
a(I0
I104
I32
I124
I5
tp2467
a(I40
I4
I56
I28
I4
tp2468
a(I20
I64
I40
I88
I9
tp2469
a(I4
I84
I52
I120
I3
tp2470
a(I20
I44
I60
I88
I6
tp2471
a(I12
I24
I36
I60
I7
tp2472
a(I24
I76
I40
I124
I2
tp2473
a(I36
I96
I56
I116
I0
tp2474
a(I36
I36
I52
I56
I5
tp2475
a(I28
I44
I44
I120
I5
tp2476
a(I32
I44
I60
I76
I3
tp2477
a(I28
I48
I44
I88
I3
tp2478
a(I16
I72
I44
I124
I8
tp2479
a(I32
I24
I48
I116
I3
tp2480
a(I20
I68
I40
I84
I6
tp2481
a(I24
I104
I60
I120
I1
tp2482
a(I4
I0
I56
I40
I9
tp2483
a(I28
I0
I48
I88
I1
tp2484
a(I36
I8
I52
I88
I9
tp2485
a(I40
I84
I60
I112
I8
tp2486
a(I8
I104
I40
I124
I3
tp2487
a(I12
I28
I28
I88
I8
tp2488
a(I8
I24
I52
I80
I5
tp2489
a(I44
I68
I60
I108
I4
tp2490
a(I12
I64
I28
I116
I2
tp2491
a(I24
I108
I48
I124
I5
tp2492
a(I20
I20
I56
I40
I7
tp2493
a(I44
I48
I60
I108
I8
tp2494
a(I28
I88
I48
I108
I2
tp2495
a(I20
I88
I36
I112
I1
tp2496
a(I0
I12
I52
I84
I4
tp2497
a(I28
I72
I52
I120
I5
tp2498
a(I8
I16
I52
I120
I7
tp2499
a(I24
I80
I56
I120
I5
tp2500
a(I28
I28
I60
I84
I3
tp2501
a(I44
I68
I60
I88
I7
tp2502
a(I4
I60
I24
I116
I9
tp2503
a(I16
I12
I48
I40
I7
tp2504
a(I16
I100
I52
I120
I8
tp2505
a(I12
I92
I40
I112
I5
tp2506
a(I40
I104
I56
I124
I6
tp2507
a(I32
I20
I52
I64
I7
tp2508
a(I28
I24
I48
I76
I0
tp2509
a(I12
I44
I60
I104
I6
tp2510
a(I0
I96
I24
I120
I8
tp2511
a(I36
I20
I56
I84
I7
tp2512
a(I36
I44
I56
I108
I7
tp2513
a(I44
I4
I60
I92
I1
tp2514
a(I44
I12
I60
I44
I1
tp2515
a(I36
I100
I52
I120
I9
tp2516
a(I40
I72
I60
I92
I7
tp2517
a(I4
I84
I60
I108
I5
tp2518
a(I0
I20
I44
I40
I7
tp2519
a(I12
I80
I48
I112
I4
tp2520
a(I32
I4
I52
I40
I4
tp2521
a(I0
I76
I16
I92
I2
tp2522
a(I12
I28
I48
I112
I2
tp2523
a(I28
I104
I56
I120
I9
tp2524
a(I12
I104
I52
I124
I9
tp2525
a(I4
I56
I28
I112
I1
tp2526
a(I36
I76
I52
I120
I7
tp2527
a(I12
I44
I40
I104
I5
tp2528
a(I4
I92
I36
I116
I8
tp2529
a(I12
I36
I28
I104
I4
tp2530
a(I24
I56
I40
I116
I5
tp2531
a(I12
I88
I32
I112
I7
tp2532
a(I40
I44
I60
I72
I0
tp2533
a(I24
I104
I44
I120
I7
tp2534
a(I4
I36
I48
I64
I4
tp2535
a(I8
I96
I52
I116
I6
tp2536
a(I12
I108
I52
I124
I5
tp2537
a(I12
I104
I52
I124
I5
tp2538
a(I28
I24
I48
I96
I5
tp2539
a(I12
I96
I40
I124
I5
tp2540
a(I44
I36
I60
I80
I7
tp2541
a(I16
I44
I56
I116
I7
tp2542
a(I28
I108
I48
I124
I3
tp2543
a(I12
I72
I36
I116
I7
tp2544
a(I16
I76
I60
I124
I5
tp2545
a(I32
I80
I52
I120
I9
tp2546
a(I4
I36
I20
I84
I2
tp2547
a(I4
I68
I40
I108
I2
tp2548
a(I44
I20
I60
I68
I2
tp2549
a(I8
I72
I56
I100
I8
tp2550
a(I4
I32
I24
I80
I5
tp2551
a(I0
I92
I48
I124
I8
tp2552
a(I20
I100
I60
I124
I3
tp2553
a(I20
I8
I56
I80
I9
tp2554
a(I36
I8
I52
I56
I3
tp2555
a(I44
I100
I60
I124
I7
tp2556
a(I16
I60
I56
I116
I4
tp2557
a(I4
I60
I24
I124
I7
tp2558
a(I28
I52
I52
I112
I1
tp2559
a(I32
I32
I52
I92
I3
tp2560
a(I32
I64
I56
I104
I8
tp2561
a(I16
I92
I48
I112
I1
tp2562
a(I12
I108
I44
I124
I2
tp2563
a(I40
I80
I60
I104
I1
tp2564
a(I32
I56
I56
I124
I4
tp2565
a(I12
I52
I44
I80
I9
tp2566
a(I40
I40
I60
I96
I6
tp2567
a(I32
I16
I52
I52
I3
tp2568
a(I44
I20
I60
I124
I9
tp2569
a(I36
I80
I56
I120
I5
tp2570
a(I36
I12
I56
I80
I6
tp2571
a(I12
I108
I44
I124
I8
tp2572
a(I36
I64
I60
I104
I6
tp2573
a(I24
I52
I44
I84
I0
tp2574
a(I28
I56
I48
I88
I7
tp2575
a(I0
I52
I52
I84
I5
tp2576
a(I0
I8
I52
I124
I5
tp2577
a(I8
I100
I56
I124
I9
tp2578
a(I28
I4
I56
I108
I9
tp2579
a(I0
I80
I32
I104
I3
tp2580
a(I16
I16
I44
I76
I5
tp2581
a(I40
I56
I60
I96
I1
tp2582
a(I0
I24
I48
I96
I8
tp2583
a(I16
I44
I44
I92
I0
tp2584
a(I24
I92
I52
I108
I9
tp2585
a(I16
I48
I48
I104
I5
tp2586
a(I8
I92
I40
I108
I8
tp2587
a(I32
I28
I52
I112
I2
tp2588
a(I20
I88
I36
I124
I5
tp2589
a(I40
I80
I56
I96
I3
tp2590
a(I32
I68
I60
I88
I9
tp2591
a(I16
I60
I36
I100
I1
tp2592
a(I44
I68
I60
I96
I0
tp2593
a(I28
I76
I48
I96
I8
tp2594
a(I0
I12
I40
I104
I3
tp2595
a(I4
I88
I40
I108
I3
tp2596
a(I44
I56
I60
I104
I9
tp2597
a(I16
I72
I48
I104
I9
tp2598
a(I8
I60
I52
I120
I4
tp2599
a(I8
I64
I60
I108
I7
tp2600
a(I20
I20
I60
I60
I3
tp2601
a(I44
I96
I60
I120
I6
tp2602
a(I44
I0
I60
I116
I1
tp2603
a(I0
I12
I20
I68
I2
tp2604
a(I12
I56
I36
I92
I1
tp2605
a(I8
I24
I28
I48
I3
tp2606
a(I20
I32
I52
I52
I6
tp2607
a(I32
I24
I48
I96
I2
tp2608
a(I16
I100
I56
I116
I1
tp2609
a(I32
I44
I60
I108
I8
tp2610
a(I24
I0
I44
I16
I4
tp2611
a(I44
I88
I60
I120
I5
tp2612
a(I16
I24
I40
I124
I2
tp2613
a(I44
I68
I60
I120
I9
tp2614
a(I36
I108
I56
I124
I9
tp2615
a(I4
I92
I36
I124
I8
tp2616
a(I12
I100
I48
I120
I9
tp2617
a(I12
I80
I44
I116
I6
tp2618
a(I32
I52
I52
I100
I8
tp2619
a(I12
I108
I48
I124
I5
tp2620
a(I16
I40
I32
I88
I6
tp2621
a(I0
I8
I28
I76
I3
tp2622
a(I12
I48
I40
I76
I2
tp2623
a(I20
I92
I48
I112
I8
tp2624
a(I4
I56
I20
I116
I1
tp2625
a(I40
I8
I60
I116
I6
tp2626
a(I16
I8
I44
I112
I4
tp2627
a(I16
I104
I40
I124
I7
tp2628
a(I8
I92
I40
I112
I6
tp2629
a(I32
I28
I60
I108
I0
tp2630
a(I32
I96
I48
I112
I8
tp2631
a(I36
I64
I52
I108
I4
tp2632
a(I4
I44
I32
I104
I9
tp2633
a(I12
I60
I40
I100
I9
tp2634
a(I36
I88
I52
I112
I3
tp2635
a(I28
I20
I60
I120
I7
tp2636
a(I44
I4
I60
I88
I2
tp2637
a(I40
I64
I56
I80
I4
tp2638
a(I20
I108
I52
I124
I3
tp2639
a(I36
I28
I56
I84
I6
tp2640
a(I4
I60
I20
I112
I3
tp2641
a(I28
I84
I60
I108
I1
tp2642
a(I40
I108
I60
I124
I5
tp2643
a(I8
I96
I28
I124
I8
tp2644
a(I8
I72
I44
I92
I9
tp2645
a(I24
I60
I52
I108
I3
tp2646
a(I8
I40
I52
I120
I0
tp2647
a(I8
I56
I52
I124
I6
tp2648
a(I32
I36
I56
I84
I8
tp2649
a(I36
I24
I56
I84
I2
tp2650
a(I20
I88
I48
I120
I3
tp2651
a(I40
I56
I56
I116
I9
tp2652
a(I20
I28
I56
I116
I2
tp2653
a(I24
I68
I52
I112
I7
tp2654
a(I12
I108
I44
I124
I1
tp2655
a(I44
I60
I60
I104
I8
tp2656
a(I32
I44
I52
I92
I5
tp2657
a(I8
I52
I24
I124
I2
tp2658
a(I40
I16
I56
I100
I7
tp2659
a(I32
I32
I48
I72
I8
tp2660
a(I32
I72
I56
I124
I3
tp2661
a(I28
I56
I48
I88
I6
tp2662
a(I24
I32
I48
I124
I8
tp2663
a(I8
I48
I28
I124
I7
tp2664
a(I8
I72
I40
I120
I7
tp2665
a(I4
I32
I20
I72
I5
tp2666
a(I36
I40
I60
I64
I2
tp2667
a(I40
I64
I60
I88
I7
tp2668
a(I24
I88
I44
I124
I8
tp2669
a(I24
I76
I60
I120
I2
tp2670
a(I40
I8
I56
I112
I3
tp2671
a(I4
I104
I24
I120
I7
tp2672
a(I12
I76
I48
I120
I2
tp2673
a(I0
I60
I20
I88
I7
tp2674
a(I40
I0
I60
I36
I6
tp2675
a(I44
I32
I60
I76
I4
tp2676
a(I4
I28
I56
I112
I7
tp2677
a(I4
I52
I48
I104
I2
tp2678
a(I36
I0
I52
I44
I0
tp2679
a(I8
I92
I48
I120
I3
tp2680
a(I8
I12
I44
I112
I7
tp2681
a(I0
I44
I24
I88
I8
tp2682
a(I40
I88
I60
I120
I1
tp2683
a(I40
I12
I60
I92
I3
tp2684
a(I16
I28
I36
I120
I8
tp2685
a(I20
I28
I36
I92
I5
tp2686
a(I40
I32
I60
I60
I4
tp2687
a(I36
I16
I60
I80
I3
tp2688
a(I32
I16
I48
I84
I3
tp2689
a(I24
I104
I40
I120
I5
tp2690
a(I44
I64
I60
I100
I9
tp2691
a(I32
I92
I60
I124
I6
tp2692
a(I4
I48
I40
I96
I3
tp2693
a(I8
I56
I44
I120
I9
tp2694
a(I16
I24
I32
I116
I5
tp2695
a(I16
I56
I40
I100
I9
tp2696
a(I12
I100
I60
I120
I8
tp2697
a(I40
I56
I56
I92
I0
tp2698
a(I4
I28
I28
I72
I5
tp2699
a(I20
I64
I60
I88
I0
tp2700
a(I12
I20
I48
I76
I5
tp2701
a(I12
I104
I28
I120
I7
tp2702
a(I24
I72
I40
I124
I3
tp2703
a(I36
I28
I60
I72
I6
tp2704
a(I36
I68
I52
I108
I9
tp2705
a(I20
I104
I52
I120
I9
tp2706
a(I8
I88
I52
I112
I8
tp2707
a(I32
I12
I48
I120
I3
tp2708
a(I12
I52
I36
I76
I0
tp2709
a(I28
I32
I48
I104
I3
tp2710
a(I16
I92
I56
I124
I7
tp2711
a(I16
I8
I48
I60
I2
tp2712
a(I28
I60
I48
I100
I7
tp2713
a(I44
I68
I60
I116
I4
tp2714
a(I44
I44
I60
I64
I9
tp2715
a(I44
I4
I60
I24
I2
tp2716
a(I4
I0
I36
I44
I9
tp2717
a(I24
I44
I56
I60
I7
tp2718
a(I36
I88
I56
I104
I2
tp2719
a(I20
I80
I40
I108
I0
tp2720
a(I12
I28
I36
I72
I0
tp2721
a(I32
I68
I52
I116
I3
tp2722
a(I8
I56
I40
I80
I7
tp2723
a(I20
I84
I48
I120
I0
tp2724
a(I20
I92
I44
I124
I9
tp2725
a(I36
I56
I52
I100
I4
tp2726
a(I0
I68
I32
I124
I8
tp2727
a(I8
I28
I44
I80
I7
tp2728
a(I24
I40
I60
I124
I0
tp2729
a(I32
I8
I56
I56
I6
tp2730
a(I36
I8
I56
I120
I5
tp2731
a(I16
I28
I36
I88
I5
tp2732
a(I24
I32
I44
I76
I7
tp2733
a(I28
I96
I56
I120
I5
tp2734
a(I28
I100
I60
I116
I7
tp2735
a(I12
I8
I44
I104
I4
tp2736
a(I20
I88
I48
I120
I1
tp2737
a(I20
I80
I56
I124
I1
tp2738
a(I24
I12
I40
I48
I0
tp2739
a(I0
I72
I44
I116
I8
tp2740
a(I44
I68
I60
I116
I0
tp2741
a(I12
I72
I52
I96
I0
tp2742
a(I28
I48
I44
I124
I0
tp2743
a(I16
I16
I52
I124
I1
tp2744
a(I28
I4
I44
I64
I1
tp2745
a(I24
I56
I60
I96
I0
tp2746
a(I40
I104
I56
I120
I3
tp2747
a(I32
I104
I48
I124
I7
tp2748
a(I32
I4
I52
I48
I9
tp2749
a(I16
I12
I52
I100
I9
tp2750
a(I28
I20
I60
I120
I4
tp2751
a(I28
I60
I60
I120
I0
tp2752
a(I44
I12
I60
I88
I5
tp2753
a(I16
I28
I40
I116
I3
tp2754
a(I12
I12
I56
I80
I0
tp2755
a(I40
I20
I56
I80
I7
tp2756
a(I32
I104
I56
I120
I2
tp2757
a(I24
I100
I48
I124
I5
tp2758
a(I24
I72
I44
I116
I5
tp2759
a(I24
I100
I40
I120
I2
tp2760
a(I40
I80
I56
I104
I5
tp2761
a(I36
I68
I56
I124
I3
tp2762
a(I16
I76
I44
I120
I2
tp2763
a(I4
I72
I28
I88
I3
tp2764
a(I32
I84
I48
I120
I1
tp2765
a(I0
I8
I24
I112
I3
tp2766
a(I24
I92
I52
I108
I5
tp2767
a(I36
I32
I60
I112
I2
tp2768
a(I8
I108
I60
I124
I3
tp2769
a(I40
I60
I56
I108
I2
tp2770
a(I4
I80
I52
I104
I2
tp2771
a(I40
I68
I60
I120
I6
tp2772
a(I4
I88
I24
I112
I8
tp2773
a(I8
I72
I60
I100
I9
tp2774
a(I44
I48
I60
I120
I3
tp2775
a(I40
I28
I60
I100
I5
tp2776
a(I0
I76
I28
I112
I4
tp2777
a(I4
I28
I44
I60
I8
tp2778
a(I32
I92
I56
I116
I3
tp2779
a(I4
I32
I56
I88
I9
tp2780
a(I36
I60
I60
I116
I6
tp2781
a(I12
I56
I40
I100
I8
tp2782
a(I20
I20
I56
I72
I1
tp2783
a(I0
I12
I16
I68
I9
tp2784
a(I28
I28
I60
I56
I1
tp2785
a(I8
I16
I24
I60
I4
tp2786
a(I24
I8
I52
I76
I6
tp2787
a(I24
I36
I48
I100
I5
tp2788
a(I40
I32
I56
I112
I7
tp2789
a(I44
I12
I60
I76
I6
tp2790
a(I0
I68
I60
I84
I5
tp2791
a(I44
I100
I60
I120
I4
tp2792
a(I24
I68
I52
I92
I9
tp2793
a(I4
I72
I40
I120
I8
tp2794
a(I44
I44
I60
I120
I6
tp2795
a(I12
I60
I52
I104
I1
tp2796
a(I28
I68
I48
I104
I7
tp2797
a(I44
I64
I60
I112
I5
tp2798
a(I16
I76
I44
I120
I5
tp2799
a(I8
I92
I32
I108
I8
tp2800
a(I0
I104
I60
I124
I5
tp2801
a(I20
I84
I56
I104
I4
tp2802
a(I16
I28
I48
I104
I6
tp2803
a(I32
I8
I60
I104
I2
tp2804
a(I44
I72
I60
I92
I9
tp2805
a(I12
I60
I32
I112
I9
tp2806
a(I8
I84
I48
I120
I3
tp2807
a(I0
I64
I20
I108
I1
tp2808
a(I0
I92
I20
I112
I7
tp2809
a(I32
I96
I56
I116
I3
tp2810
a(I28
I92
I56
I108
I3
tp2811
a(I0
I96
I44
I120
I8
tp2812
a(I32
I72
I52
I104
I4
tp2813
a(I12
I56
I28
I116
I9
tp2814
a(I4
I4
I20
I84
I2
tp2815
a(I28
I12
I60
I36
I6
tp2816
a(I44
I16
I60
I92
I2
tp2817
a(I16
I12
I44
I88
I4
tp2818
a(I8
I76
I48
I116
I4
tp2819
a(I20
I104
I48
I120
I3
tp2820
a(I20
I96
I40
I112
I2
tp2821
a(I16
I84
I40
I120
I4
tp2822
a(I44
I40
I60
I84
I9
tp2823
a(I16
I16
I44
I44
I6
tp2824
a(I32
I16
I52
I92
I3
tp2825
a(I0
I80
I36
I108
I3
tp2826
a(I16
I8
I60
I100
I4
tp2827
a(I8
I80
I48
I120
I0
tp2828
a(I16
I76
I60
I92
I0
tp2829
a(I40
I24
I60
I60
I2
tp2830
a(I44
I68
I60
I84
I6
tp2831
a(I28
I108
I48
I124
I8
tp2832
a(I12
I24
I48
I40
I7
tp2833
a(I32
I72
I52
I112
I0
tp2834
a(I0
I8
I40
I112
I1
tp2835
a(I32
I16
I60
I124
I9
tp2836
a(I36
I76
I60
I104
I3
tp2837
a(I24
I100
I60
I120
I8
tp2838
a(I28
I80
I44
I100
I5
tp2839
a(I8
I56
I28
I124
I5
tp2840
a(I12
I88
I40
I104
I5
tp2841
a(I8
I24
I24
I72
I9
tp2842
a(I44
I8
I60
I100
I1
tp2843
a(I8
I68
I24
I108
I7
tp2844
a(I36
I88
I60
I112
I6
tp2845
a(I28
I48
I56
I100
I1
tp2846
a(I44
I76
I60
I92
I4
tp2847
a(I0
I88
I40
I104
I5
tp2848
a(I32
I80
I56
I108
I9
tp2849
a(I24
I100
I48
I116
I6
tp2850
a(I20
I92
I36
I112
I4
tp2851
a(I12
I20
I48
I120
I1
tp2852
a(I36
I4
I56
I40
I0
tp2853
a(I0
I92
I28
I108
I2
tp2854
a(I44
I64
I60
I112
I2
tp2855
a(I28
I0
I52
I92
I7
tp2856
a(I40
I88
I56
I104
I1
tp2857
a(I8
I88
I44
I124
I5
tp2858
a(I44
I92
I60
I124
I2
tp2859
a(I4
I88
I40
I112
I3
tp2860
a(I12
I20
I56
I116
I3
tp2861
a(I36
I28
I52
I68
I1
tp2862
a(I40
I32
I60
I96
I3
tp2863
a(I8
I16
I52
I80
I9
tp2864
a(I44
I36
I60
I76
I4
tp2865
a(I32
I40
I60
I120
I4
tp2866
a(I40
I108
I60
I124
I6
tp2867
a(I36
I56
I56
I88
I7
tp2868
a(I40
I104
I56
I120
I5
tp2869
a(I32
I12
I60
I88
I6
tp2870
a(I16
I20
I40
I108
I3
tp2871
a(I0
I92
I48
I108
I9
tp2872
a(I12
I76
I56
I124
I9
tp2873
a(I12
I28
I60
I92
I4
tp2874
a(I28
I24
I44
I56
I4
tp2875
a(I0
I52
I24
I112
I3
tp2876
a(I24
I24
I56
I76
I0
tp2877
a(I16
I64
I60
I88
I1
tp2878
a(I36
I48
I56
I100
I1
tp2879
a(I12
I96
I56
I116
I0
tp2880
a(I16
I60
I40
I84
I0
tp2881
a(I20
I96
I36
I120
I7
tp2882
a(I20
I60
I60
I116
I7
tp2883
a(I8
I108
I44
I124
I6
tp2884
a(I16
I76
I60
I112
I9
tp2885
a(I4
I12
I56
I32
I9
tp2886
a(I40
I28
I56
I60
I7
tp2887
a(I40
I56
I60
I116
I3
tp2888
a(I20
I72
I48
I100
I4
tp2889
a(I4
I80
I36
I100
I5
tp2890
a(I16
I60
I44
I120
I0
tp2891
a(I40
I92
I56
I112
I9
tp2892
a(I4
I24
I36
I108
I8
tp2893
a(I44
I84
I60
I100
I8
tp2894
a(I36
I40
I56
I64
I8
tp2895
a(I40
I64
I60
I112
I0
tp2896
a(I4
I108
I28
I124
I6
tp2897
a(I24
I40
I56
I76
I4
tp2898
a(I20
I64
I60
I92
I9
tp2899
a(I32
I72
I48
I104
I1
tp2900
a(I36
I92
I52
I116
I9
tp2901
a(I20
I48
I44
I88
I4
tp2902
a(I36
I8
I60
I104
I1
tp2903
a(I0
I68
I52
I116
I2
tp2904
a(I24
I108
I48
I124
I8
tp2905
a(I36
I36
I60
I68
I2
tp2906
a(I4
I24
I20
I92
I6
tp2907
a(I0
I84
I36
I116
I4
tp2908
a(I24
I72
I52
I104
I1
tp2909
a(I20
I4
I48
I80
I7
tp2910
a(I8
I36
I60
I108
I1
tp2911
a(I4
I36
I20
I108
I2
tp2912
a(I8
I100
I48
I120
I0
tp2913
a(I0
I100
I32
I116
I9
tp2914
a(I32
I8
I56
I100
I3
tp2915
a(I0
I48
I40
I72
I9
tp2916
a(I24
I68
I56
I104
I9
tp2917
a(I28
I68
I52
I116
I8
tp2918
a(I8
I28
I40
I84
I1
tp2919
a(I8
I32
I32
I116
I7
tp2920
a(I16
I4
I52
I28
I3
tp2921
a(I40
I104
I60
I120
I2
tp2922
a(I36
I60
I60
I92
I8
tp2923
a(I24
I24
I60
I100
I5
tp2924
a(I20
I12
I40
I104
I5
tp2925
a(I16
I72
I56
I104
I6
tp2926
a(I16
I32
I56
I84
I1
tp2927
a(I40
I48
I60
I100
I5
tp2928
a(I36
I60
I60
I80
I1
tp2929
a(I32
I48
I60
I88
I0
tp2930
a(I28
I36
I60
I100
I5
tp2931
a(I8
I12
I32
I92
I8
tp2932
a(I12
I64
I36
I112
I7
tp2933
a(I8
I60
I48
I96
I3
tp2934
a(I0
I96
I44
I124
I8
tp2935
a(I44
I88
I60
I112
I9
tp2936
a(I32
I32
I56
I64
I5
tp2937
a(I12
I12
I36
I64
I7
tp2938
a(I32
I52
I48
I68
I4
tp2939
a(I0
I68
I52
I84
I4
tp2940
a(I36
I8
I52
I56
I0
tp2941
a(I8
I84
I28
I104
I8
tp2942
a(I8
I44
I56
I68
I8
tp2943
a(I8
I80
I28
I124
I1
tp2944
a(I8
I4
I24
I104
I6
tp2945
a(I40
I28
I56
I120
I8
tp2946
a(I32
I28
I48
I108
I0
tp2947
a(I24
I4
I60
I92
I2
tp2948
a(I40
I0
I60
I20
I8
tp2949
a(I40
I16
I60
I40
I2
tp2950
a(I40
I20
I56
I80
I6
tp2951
a(I20
I20
I40
I92
I8
tp2952
a(I32
I32
I60
I80
I4
tp2953
a(I32
I104
I60
I120
I5
tp2954
a(I36
I104
I56
I120
I0
tp2955
a(I16
I60
I56
I104
I2
tp2956
a(I4
I32
I28
I124
I1
tp2957
a(I12
I8
I48
I40
I1
tp2958
a(I40
I44
I56
I88
I2
tp2959
a(I20
I48
I44
I104
I5
tp2960
a(I8
I64
I36
I84
I1
tp2961
a(I32
I32
I48
I116
I1
tp2962
a(I28
I24
I56
I72
I0
tp2963
a(I36
I32
I60
I92
I7
tp2964
a(I0
I72
I60
I92
I9
tp2965
a(I36
I28
I56
I112
I4
tp2966
a(I28
I12
I48
I32
I3
tp2967
a(I0
I40
I24
I120
I0
tp2968
a(I40
I60
I56
I108
I9
tp2969
a(I28
I68
I52
I120
I9
tp2970
a(I4
I68
I60
I96
I4
tp2971
a(I32
I96
I52
I116
I9
tp2972
a(I44
I12
I60
I92
I7
tp2973
a(I8
I0
I24
I52
I8
tp2974
a(I4
I40
I60
I56
I8
tp2975
a(I0
I48
I28
I108
I7
tp2976
a(I8
I0
I52
I76
I2
tp2977
a(I36
I16
I56
I76
I5
tp2978
a(I16
I44
I60
I88
I2
tp2979
a(I20
I20
I56
I108
I0
tp2980
a(I0
I88
I48
I104
I9
tp2981
a(I4
I20
I40
I104
I6
tp2982
a(I12
I68
I32
I120
I2
tp2983
a(I32
I56
I56
I84
I2
tp2984
a(I20
I108
I36
I124
I1
tp2985
a(I24
I36
I40
I112
I9
tp2986
a(I12
I12
I52
I100
I9
tp2987
a(I24
I48
I56
I88
I5
tp2988
a(I28
I36
I48
I56
I5
tp2989
a(I12
I72
I44
I108
I9
tp2990
a(I36
I64
I56
I124
I3
tp2991
a(I16
I64
I40
I104
I1
tp2992
a(I36
I24
I56
I104
I1
tp2993
a(I8
I60
I52
I92
I7
tp2994
a(I40
I12
I60
I56
I5
tp2995
a(I0
I44
I44
I68
I5
tp2996
a(I40
I80
I60
I120
I1
tp2997
a(I24
I104
I40
I120
I5
tp2998
a(I40
I16
I60
I60
I8
tp2999
a(I0
I24
I44
I120
I5
tp3000
a(I36
I72
I60
I112
I3
tp3001
a(I24
I44
I48
I68
I8
tp3002
a(I28
I0
I48
I112
I9
tp3003
a(I8
I48
I56
I72
I7
tp3004
a(I32
I76
I60
I92
I3
tp3005
a(I16
I76
I60
I92
I4
tp3006
a(I12
I80
I40
I112
I5
tp3007
a(I32
I28
I52
I68
I8
tp3008
a(I4
I28
I36
I120
I1
tp3009
a(I16
I52
I36
I80
I7
tp3010
a(I12
I0
I40
I28
I2
tp3011
a(I4
I24
I48
I44
I4
tp3012
a(I4
I36
I36
I104
I1
tp3013
a(I28
I60
I60
I100
I0
tp3014
a(I28
I36
I56
I88
I9
tp3015
a(I24
I92
I56
I112
I6
tp3016
a(I8
I100
I40
I120
I3
tp3017
a(I16
I40
I60
I100
I6
tp3018
a(I28
I80
I60
I120
I0
tp3019
a(I12
I16
I44
I112
I6
tp3020
a(I32
I0
I52
I36
I0
tp3021
a(I32
I12
I48
I76
I4
tp3022
a(I8
I4
I40
I76
I2
tp3023
a(I28
I48
I60
I68
I6
tp3024
a(I16
I88
I48
I108
I1
tp3025
a(I20
I52
I52
I120
I3
tp3026
a(I40
I76
I60
I124
I9
tp3027
a(I44
I8
I60
I92
I8
tp3028
a(I20
I52
I48
I96
I6
tp3029
a(I8
I0
I44
I96
I7
tp3030
a(I20
I32
I60
I88
I8
tp3031
a(I44
I16
I60
I36
I8
tp3032
a(I16
I60
I40
I80
I0
tp3033
a(I0
I20
I60
I80
I4
tp3034
a(I32
I68
I48
I88
I8
tp3035
a(I36
I56
I56
I72
I3
tp3036
a(I36
I68
I56
I100
I7
tp3037
a(I32
I8
I48
I60
I7
tp3038
a(I40
I36
I60
I92
I9
tp3039
a(I16
I52
I48
I108
I1
tp3040
a(I8
I56
I56
I92
I4
tp3041
a(I24
I0
I48
I80
I7
tp3042
a(I8
I96
I60
I120
I5
tp3043
a(I0
I76
I52
I120
I6
tp3044
a(I28
I60
I60
I76
I3
tp3045
a(I12
I0
I28
I36
I9
tp3046
a(I36
I0
I60
I24
I1
tp3047
a(I36
I40
I60
I96
I4
tp3048
a(I12
I24
I40
I124
I3
tp3049
a(I32
I52
I56
I120
I9
tp3050
a(I20
I32
I44
I64
I5
tp3051
a(I44
I88
I60
I116
I6
tp3052
a(I36
I108
I52
I124
I2
tp3053
a(I28
I56
I52
I88
I4
tp3054
a(I0
I108
I28
I124
I8
tp3055
a(I32
I28
I56
I56
I8
tp3056
a(I32
I32
I56
I124
I9
tp3057
a(I24
I72
I52
I104
I7
tp3058
a(I32
I44
I60
I60
I0
tp3059
a(I28
I28
I56
I108
I7
tp3060
a(I32
I64
I60
I112
I5
tp3061
a(I32
I20
I52
I100
I8
tp3062
a(I12
I104
I28
I124
I8
tp3063
a(I20
I20
I48
I76
I9
tp3064
a(I24
I16
I56
I120
I0
tp3065
a(I4
I4
I60
I20
I6
tp3066
a(I28
I76
I48
I100
I9
tp3067
a(I4
I48
I40
I80
I2
tp3068
a(I4
I40
I52
I100
I8
tp3069
a(I36
I88
I56
I104
I0
tp3070
a(I20
I20
I44
I120
I4
tp3071
a(I0
I76
I48
I92
I8
tp3072
a(I36
I60
I60
I112
I0
tp3073
a(I40
I36
I56
I68
I3
tp3074
a(I20
I76
I56
I120
I3
tp3075
a(I28
I104
I56
I120
I9
tp3076
a(I24
I96
I44
I120
I2
tp3077
a(I28
I36
I48
I100
I2
tp3078
a(I28
I100
I60
I120
I3
tp3079
a(I20
I84
I52
I112
I6
tp3080
a(I44
I4
I60
I124
I7
tp3081
a(I28
I0
I48
I96
I1
tp3082
a(I36
I44
I52
I96
I5
tp3083
a(I32
I36
I52
I108
I4
tp3084
a(I16
I92
I36
I116
I4
tp3085
a(I20
I76
I36
I92
I6
tp3086
a(I20
I48
I48
I76
I6
tp3087
a(I8
I64
I32
I80
I2
tp3088
a(I36
I60
I60
I88
I8
tp3089
a(I32
I4
I56
I60
I6
tp3090
a(I24
I16
I44
I84
I9
tp3091
a(I28
I100
I52
I124
I5
tp3092
a(I8
I84
I48
I108
I1
tp3093
a(I0
I68
I32
I92
I0
tp3094
a(I20
I64
I36
I100
I1
tp3095
a(I8
I56
I52
I116
I4
tp3096
a(I16
I28
I52
I108
I1
tp3097
a(I36
I60
I60
I124
I1
tp3098
a(I12
I96
I32
I116
I2
tp3099
a(I20
I12
I60
I80
I4
tp3100
a(I16
I80
I32
I96
I2
tp3101
a(I24
I12
I52
I68
I4
tp3102
a(I28
I36
I52
I104
I8
tp3103
a(I28
I8
I60
I48
I5
tp3104
a(I8
I92
I28
I120
I6
tp3105
a(I36
I48
I60
I68
I6
tp3106
a(I32
I104
I56
I124
I5
tp3107
a(I24
I56
I48
I80
I0
tp3108
a(I44
I64
I60
I104
I8
tp3109
a(I32
I68
I52
I116
I5
tp3110
a(I0
I88
I60
I108
I9
tp3111
a(I36
I32
I60
I76
I1
tp3112
a(I44
I28
I60
I88
I4
tp3113
a(I36
I104
I52
I124
I4
tp3114
a(I40
I0
I60
I60
I1
tp3115
a(I16
I60
I40
I84
I2
tp3116
a(I44
I28
I60
I120
I4
tp3117
a(I44
I84
I60
I100
I4
tp3118
a(I24
I48
I48
I112
I9
tp3119
a(I0
I88
I40
I112
I0
tp3120
a(I8
I12
I24
I84
I1
tp3121
a(I16
I40
I40
I88
I2
tp3122
a(I12
I60
I40
I104
I4
tp3123
a(I44
I0
I60
I76
I2
tp3124
a(I4
I76
I36
I96
I0
tp3125
a(I32
I0
I60
I88
I2
tp3126
a(I32
I48
I56
I88
I1
tp3127
a(I36
I44
I60
I96
I8
tp3128
a(I20
I76
I40
I116
I0
tp3129
a(I28
I36
I44
I124
I6
tp3130
a(I36
I36
I56
I52
I8
tp3131
a(I20
I4
I48
I48
I0
tp3132
a(I20
I96
I48
I112
I2
tp3133
a(I32
I108
I52
I124
I2
tp3134
a(I28
I20
I52
I60
I3
tp3135
a(I16
I0
I52
I36
I3
tp3136
a(I12
I76
I32
I124
I0
tp3137
a(I36
I56
I56
I96
I2
tp3138
a(I16
I44
I56
I96
I8
tp3139
a(I36
I88
I60
I116
I6
tp3140
a(I32
I92
I56
I124
I2
tp3141
a(I28
I80
I56
I116
I7
tp3142
a(I24
I28
I40
I120
I4
tp3143
a(I20
I52
I52
I108
I5
tp3144
a(I28
I8
I52
I56
I9
tp3145
a(I40
I12
I60
I84
I9
tp3146
a(I32
I104
I48
I124
I3
tp3147
a(I32
I64
I56
I112
I9
tp3148
a(I24
I104
I40
I120
I4
tp3149
a(I28
I96
I56
I120
I9
tp3150
a(I8
I36
I40
I52
I0
tp3151
a(I12
I32
I44
I68
I5
tp3152
a(I24
I76
I60
I92
I8
tp3153
a(I4
I0
I36
I84
I4
tp3154
a(I36
I8
I60
I108
I2
tp3155
a(I12
I60
I44
I88
I0
tp3156
a(I12
I16
I52
I76
I8
tp3157
a(I28
I68
I48
I88
I4
tp3158
a(I44
I12
I60
I28
I5
tp3159
a(I28
I52
I60
I104
I5
tp3160
a(I12
I92
I44
I112
I4
tp3161
a(I24
I52
I56
I88
I2
tp3162
a(I36
I4
I52
I116
I9
tp3163
a(I8
I60
I48
I116
I8
tp3164
a(I0
I60
I44
I76
I1
tp3165
a(I28
I108
I56
I124
I5
tp3166
a(I0
I20
I28
I80
I5
tp3167
a(I16
I88
I40
I112
I2
tp3168
a(I36
I72
I52
I96
I4
tp3169
a(I28
I20
I44
I92
I4
tp3170
a(I32
I28
I52
I88
I0
tp3171
a(I16
I12
I44
I92
I6
tp3172
a(I0
I12
I40
I72
I9
tp3173
a(I0
I104
I48
I124
I7
tp3174
a(I24
I84
I52
I108
I0
tp3175
a(I12
I96
I32
I120
I6
tp3176
a(I36
I44
I60
I104
I4
tp3177
a(I4
I48
I52
I84
I6
tp3178
a(I24
I32
I60
I56
I5
tp3179
a(I20
I4
I40
I24
I4
tp3180
a(I28
I40
I44
I116
I8
tp3181
a(I32
I36
I60
I68
I0
tp3182
a(I36
I36
I60
I60
I2
tp3183
a(I32
I92
I48
I124
I5
tp3184
a(I40
I64
I56
I96
I6
tp3185
a(I0
I68
I44
I100
I2
tp3186
a(I8
I100
I36
I120
I5
tp3187
a(I28
I24
I60
I124
I5
tp3188
a(I44
I72
I60
I88
I7
tp3189
a(I0
I104
I48
I120
I5
tp3190
a(I20
I16
I56
I44
I7
tp3191
a(I44
I32
I60
I112
I4
tp3192
a(I32
I104
I48
I124
I4
tp3193
a(I32
I40
I56
I80
I1
tp3194
a(I28
I104
I52
I124
I2
tp3195
a(I20
I96
I60
I116
I3
tp3196
a(I40
I88
I60
I124
I3
tp3197
a(I36
I68
I56
I92
I6
tp3198
a(I36
I72
I56
I104
I3
tp3199
a(I32
I68
I52
I112
I9
tp3200
a(I20
I76
I36
I124
I5
tp3201
a(I36
I108
I52
I124
I9
tp3202
a(I44
I48
I60
I120
I8
tp3203
a(I20
I20
I60
I52
I0
tp3204
a(I32
I100
I60
I116
I9
tp3205
a(I32
I52
I60
I96
I6
tp3206
a(I8
I84
I28
I100
I8
tp3207
a(I44
I28
I60
I92
I9
tp3208
a(I40
I68
I56
I116
I5
tp3209
a(I40
I36
I56
I60
I3
tp3210
a(I44
I68
I60
I116
I2
tp3211
a(I0
I48
I32
I108
I9
tp3212
a(I8
I8
I28
I56
I9
tp3213
a(I28
I48
I52
I64
I2
tp3214
a(I28
I108
I52
I124
I5
tp3215
a(I0
I60
I40
I84
I4
tp3216
a(I40
I80
I60
I108
I9
tp3217
a(I0
I36
I48
I84
I4
tp3218
a(I16
I76
I60
I92
I0
tp3219
a(I4
I92
I60
I124
I4
tp3220
a(I12
I56
I44
I124
I8
tp3221
a(I20
I0
I36
I80
I6
tp3222
a(I12
I104
I52
I120
I8
tp3223
a(I16
I64
I40
I104
I4
tp3224
a(I28
I12
I56
I108
I2
tp3225
a(I4
I88
I48
I112
I4
tp3226
a(I36
I88
I52
I124
I7
tp3227
a(I32
I72
I48
I108
I4
tp3228
a(I0
I92
I60
I108
I3
tp3229
a(I16
I32
I44
I108
I9
tp3230
a(I0
I68
I48
I100
I2
tp3231
a(I12
I40
I48
I112
I9
tp3232
a(I12
I84
I32
I124
I7
tp3233
a(I0
I44
I32
I84
I3
tp3234
a(I28
I4
I44
I64
I5
tp3235
a(I36
I100
I52
I124
I8
tp3236
a(I0
I24
I56
I96
I9
tp3237
a(I0
I52
I60
I116
I1
tp3238
a(I8
I84
I60
I100
I0
tp3239
a(I36
I76
I60
I108
I2
tp3240
a(I36
I84
I52
I104
I0
tp3241
a(I24
I28
I52
I80
I0
tp3242
a(I32
I100
I60
I116
I2
tp3243
a(I4
I40
I40
I108
I0
tp3244
a(I28
I12
I48
I84
I4
tp3245
a(I12
I24
I44
I72
I8
tp3246
a(I8
I100
I28
I116
I1
tp3247
a(I28
I12
I48
I72
I3
tp3248
a(I44
I52
I60
I104
I7
tp3249
a(I20
I88
I40
I112
I3
tp3250
a(I32
I92
I52
I124
I8
tp3251
a(I44
I20
I60
I60
I3
tp3252
a(I40
I28
I60
I44
I4
tp3253
a(I28
I56
I56
I92
I0
tp3254
a(I12
I0
I48
I92
I9
tp3255
a(I0
I52
I60
I116
I7
tp3256
a(I36
I28
I60
I92
I7
tp3257
a(I20
I44
I52
I120
I0
tp3258
a(I16
I104
I36
I120
I3
tp3259
a(I28
I68
I52
I88
I8
tp3260
a(I0
I32
I44
I84
I7
tp3261
a(I32
I28
I52
I72
I7
tp3262
a(I28
I48
I48
I72
I2
tp3263
a(I36
I64
I56
I80
I7
tp3264
a(I20
I44
I56
I112
I2
tp3265
a(I4
I104
I52
I120
I5
tp3266
a(I32
I84
I48
I108
I4
tp3267
a(I28
I76
I52
I92
I8
tp3268
a(I0
I104
I16
I124
I9
tp3269
a(I16
I92
I44
I120
I9
tp3270
a(I28
I8
I60
I28
I1
tp3271
a(I16
I0
I44
I16
I5
tp3272
a(I28
I0
I48
I96
I3
tp3273
a(I40
I32
I56
I68
I3
tp3274
a(I24
I96
I60
I120
I1
tp3275
a(I16
I100
I48
I116
I8
tp3276
a(I40
I64
I56
I96
I9
tp3277
a(I20
I8
I44
I48
I7
tp3278
a(I16
I44
I36
I76
I9
tp3279
a(I32
I36
I48
I116
I5
tp3280
a(I16
I16
I56
I76
I3
tp3281
a(I20
I76
I60
I92
I9
tp3282
a(I20
I92
I52
I116
I5
tp3283
a(I4
I44
I40
I104
I4
tp3284
a(I20
I40
I36
I124
I3
tp3285
a(I36
I24
I56
I112
I0
tp3286
a(I24
I80
I44
I108
I5
tp3287
a(I12
I0
I60
I88
I5
tp3288
a(I4
I48
I32
I64
I7
tp3289
a(I24
I8
I44
I76
I2
tp3290
a(I8
I16
I32
I88
I4
tp3291
a(I24
I104
I60
I124
I2
tp3292
a(I40
I80
I56
I108
I9
tp3293
a(I0
I84
I28
I116
I9
tp3294
a(I24
I84
I56
I112
I5
tp3295
a(I8
I96
I32
I116
I3
tp3296
a(I0
I100
I16
I120
I6
tp3297
a(I12
I24
I36
I64
I0
tp3298
a(I32
I76
I48
I100
I2
tp3299
a(I32
I56
I60
I96
I2
tp3300
a(I36
I68
I52
I88
I7
tp3301
a(I44
I0
I60
I88
I5
tp3302
a(I8
I96
I24
I120
I9
tp3303
a(I20
I92
I56
I124
I3
tp3304
a(I20
I64
I52
I88
I6
tp3305
a(I40
I76
I60
I104
I7
tp3306
a(I24
I60
I60
I76
I5
tp3307
a(I24
I108
I40
I124
I3
tp3308
a(I20
I8
I44
I28
I6
tp3309
a(I16
I4
I60
I112
I1
tp3310
a(I24
I56
I52
I104
I3
tp3311
a(I0
I28
I36
I112
I3
tp3312
a(I4
I40
I56
I68
I3
tp3313
a(I24
I56
I48
I84
I6
tp3314
a(I44
I4
I60
I60
I1
tp3315
a(I8
I104
I60
I124
I1
tp3316
a(I24
I64
I60
I100
I0
tp3317
a(I0
I4
I40
I116
I1
tp3318
a(I16
I100
I52
I116
I2
tp3319
a(I40
I8
I56
I80
I0
tp3320
a(I24
I8
I56
I124
I1
tp3321
a(I40
I0
I60
I80
I5
tp3322
a(I20
I36
I60
I88
I1
tp3323
a(I16
I88
I56
I124
I6
tp3324
a(I44
I52
I60
I80
I8
tp3325
a(I44
I76
I60
I96
I8
tp3326
a(I28
I72
I60
I108
I3
tp3327
a(I24
I80
I48
I108
I9
tp3328
a(I40
I72
I56
I112
I8
tp3329
a(I32
I84
I48
I116
I5
tp3330
a(I40
I0
I60
I92
I8
tp3331
a(I20
I36
I52
I112
I2
tp3332
a(I40
I88
I56
I112
I0
tp3333
a(I28
I100
I48
I124
I3
tp3334
a(I8
I56
I48
I92
I7
tp3335
a(I20
I20
I60
I100
I0
tp3336
a(I44
I24
I60
I64
I6
tp3337
a(I36
I12
I56
I76
I7
tp3338
a(I16
I40
I56
I80
I3
tp3339
a(I20
I60
I48
I88
I9
tp3340
a(I28
I92
I56
I120
I0
tp3341
a(I44
I48
I60
I80
I8
tp3342
a(I24
I64
I44
I108
I4
tp3343
a(I32
I4
I48
I56
I4
tp3344
a(I12
I104
I36
I120
I5
tp3345
a(I40
I8
I60
I96
I3
tp3346
a(I0
I32
I56
I64
I0
tp3347
a(I12
I84
I32
I112
I5
tp3348
a(I20
I4
I60
I48
I4
tp3349
a(I16
I92
I60
I116
I3
tp3350
a(I20
I40
I56
I68
I7
tp3351
a(I24
I68
I56
I124
I9
tp3352
a(I44
I24
I60
I60
I1
tp3353
a(I32
I84
I48
I124
I8
tp3354
a(I32
I20
I56
I96
I9
tp3355
a(I24
I76
I60
I104
I9
tp3356
a(I20
I96
I40
I120
I6
tp3357
a(I12
I72
I28
I116
I1
tp3358
a(I20
I16
I60
I60
I2
tp3359
a(I4
I4
I52
I120
I0
tp3360
a(I4
I88
I44
I116
I8
tp3361
a(I16
I24
I48
I52
I8
tp3362
a(I4
I36
I44
I64
I2
tp3363
a(I16
I100
I40
I116
I2
tp3364
a(I4
I64
I20
I84
I4
tp3365
a(I32
I12
I48
I96
I2
tp3366
a(I12
I68
I56
I100
I4
tp3367
a(I24
I84
I56
I124
I2
tp3368
a(I8
I52
I28
I88
I8
tp3369
a(I20
I40
I56
I112
I1
tp3370
a(I12
I12
I56
I116
I4
tp3371
a(I16
I12
I60
I44
I1
tp3372
a(I4
I12
I36
I44
I9
tp3373
a(I16
I92
I60
I108
I2
tp3374
a(I8
I40
I36
I100
I6
tp3375
a(I44
I52
I60
I84
I0
tp3376
a(I0
I8
I44
I84
I5
tp3377
a(I36
I52
I60
I68
I3
tp3378
a(I16
I84
I40
I100
I0
tp3379
a(I8
I48
I56
I120
I0
tp3380
a(I36
I88
I52
I104
I0
tp3381
a(I32
I44
I60
I72
I9
tp3382
a(I24
I20
I56
I72
I5
tp3383
a(I24
I44
I40
I92
I9
tp3384
a(I32
I64
I52
I84
I7
tp3385
a(I28
I32
I52
I104
I3
tp3386
a(I20
I100
I52
I120
I8
tp3387
a(I12
I16
I40
I96
I2
tp3388
a(I32
I32
I48
I80
I5
tp3389
a(I8
I64
I36
I104
I1
tp3390
a(I4
I0
I56
I32
I7
tp3391
a(I4
I92
I60
I124
I4
tp3392
a(I36
I32
I56
I60
I5
tp3393
a(I12
I56
I28
I104
I9
tp3394
a(I32
I88
I60
I104
I8
tp3395
a(I8
I8
I56
I56
I7
tp3396
a(I20
I12
I44
I52
I7
tp3397
a(I12
I40
I28
I112
I8
tp3398
a(I44
I52
I60
I100
I2
tp3399
a(I36
I16
I56
I68
I6
tp3400
a(I28
I104
I52
I124
I7
tp3401
a(I4
I0
I40
I68
I8
tp3402
a(I40
I92
I56
I120
I0
tp3403
a(I16
I4
I32
I64
I9
tp3404
a(I20
I72
I44
I116
I1
tp3405
a(I24
I84
I60
I120
I4
tp3406
a(I20
I4
I48
I104
I9
tp3407
a(I0
I40
I60
I108
I3
tp3408
a(I16
I84
I52
I112
I4
tp3409
a(I0
I88
I24
I108
I4
tp3410
a(I20
I64
I40
I84
I5
tp3411
a(I32
I20
I60
I108
I1
tp3412
a(I28
I88
I52
I124
I3
tp3413
a(I0
I76
I16
I120
I1
tp3414
a(I44
I24
I60
I44
I9
tp3415
a(I36
I52
I56
I72
I6
tp3416
a(I28
I0
I56
I24
I1
tp3417
a(I40
I32
I60
I88
I0
tp3418
a(I36
I60
I56
I100
I5
tp3419
a(I28
I72
I48
I108
I3
tp3420
a(I12
I48
I52
I68
I5
tp3421
a(I36
I0
I56
I80
I3
tp3422
a(I36
I56
I60
I124
I1
tp3423
a(I44
I24
I60
I88
I6
tp3424
a(I36
I48
I60
I68
I9
tp3425
a(I36
I4
I60
I32
I0
tp3426
a(I12
I68
I44
I104
I4
tp3427
a(I32
I8
I48
I112
I2
tp3428
a(I20
I92
I56
I108
I5
tp3429
a(I20
I104
I48
I120
I9
tp3430
a(I32
I92
I60
I120
I3
tp3431
a(I40
I84
I60
I120
I1
tp3432
a(I24
I8
I44
I88
I3
tp3433
a(I0
I108
I52
I124
I4
tp3434
a(I32
I72
I56
I88
I0
tp3435
a(I16
I20
I36
I108
I5
tp3436
a(I16
I100
I48
I124
I2
tp3437
a(I12
I44
I36
I120
I0
tp3438
a(I12
I68
I44
I92
I9
tp3439
a(I28
I8
I60
I40
I4
tp3440
a(I12
I36
I48
I84
I8
tp3441
a(I28
I68
I56
I112
I8
tp3442
a(I44
I52
I60
I104
I7
tp3443
a(I0
I48
I56
I104
I1
tp3444
a(I8
I72
I52
I96
I3
tp3445
a(I16
I12
I44
I44
I0
tp3446
a(I0
I32
I40
I76
I6
tp3447
a(I32
I92
I60
I120
I9
tp3448
a(I12
I4
I56
I112
I6
tp3449
a(I28
I88
I56
I120
I6
tp3450
a(I4
I36
I36
I72
I4
tp3451
a(I16
I96
I44
I116
I9
tp3452
a(I0
I48
I56
I96
I6
tp3453
a(I28
I24
I52
I80
I0
tp3454
a(I44
I20
I60
I48
I1
tp3455
a(I0
I40
I60
I124
I1
tp3456
a(I44
I40
I60
I56
I9
tp3457
a(I0
I12
I52
I112
I2
tp3458
a(I28
I108
I60
I124
I5
tp3459
a(I0
I52
I16
I92
I2
tp3460
a(I36
I44
I56
I60
I6
tp3461
a(I44
I36
I60
I116
I3
tp3462
a(I36
I60
I60
I108
I3
tp3463
a(I24
I60
I56
I116
I9
tp3464
a(I20
I12
I36
I56
I4
tp3465
a(I8
I72
I32
I104
I4
tp3466
a(I28
I96
I60
I112
I3
tp3467
a(I36
I92
I56
I116
I4
tp3468
a(I20
I60
I48
I124
I9
tp3469
a(I40
I8
I56
I124
I9
tp3470
a(I12
I60
I44
I88
I3
tp3471
a(I24
I28
I40
I60
I9
tp3472
a(I40
I76
I56
I116
I9
tp3473
a(I12
I0
I32
I52
I3
tp3474
a(I0
I44
I28
I116
I9
tp3475
a(I4
I104
I52
I124
I2
tp3476
a(I44
I84
I60
I124
I2
tp3477
a(I16
I104
I52
I120
I4
tp3478
a(I12
I52
I36
I124
I0
tp3479
a(I16
I44
I60
I100
I3
tp3480
a(I36
I76
I52
I100
I8
tp3481
a(I16
I36
I56
I124
I5
tp3482
a(I20
I8
I56
I52
I5
tp3483
a(I32
I12
I52
I104
I7
tp3484
a(I4
I84
I48
I116
I4
tp3485
a(I28
I68
I52
I96
I4
tp3486
a(I20
I88
I60
I112
I0
tp3487
a(I32
I0
I48
I36
I4
tp3488
a(I36
I64
I56
I124
I6
tp3489
a(I16
I88
I48
I124
I3
tp3490
a(I4
I96
I28
I124
I8
tp3491
a(I24
I72
I56
I96
I1
tp3492
a(I12
I32
I52
I88
I2
tp3493
a(I8
I68
I24
I92
I8
tp3494
a(I44
I56
I60
I120
I3
tp3495
a(I44
I96
I60
I120
I3
tp3496
a(I40
I108
I60
I124
I6
tp3497
a(I4
I32
I24
I116
I5
tp3498
a(I24
I28
I48
I52
I5
tp3499
a(I44
I44
I60
I80
I8
tp3500
a(I36
I12
I52
I100
I4
tp3501
a(I44
I104
I60
I120
I9
tp3502
a(I32
I32
I48
I68
I7
tp3503
a(I20
I36
I52
I60
I9
tp3504
a(I16
I72
I32
I92
I1
tp3505
a(I44
I28
I60
I96
I1
tp3506
a(I44
I72
I60
I100
I6
tp3507
a(I36
I100
I52
I124
I9
tp3508
a(I28
I72
I52
I124
I9
tp3509
a(I4
I56
I24
I92
I2
tp3510
a(I4
I88
I44
I116
I7
tp3511
a(I8
I36
I52
I60
I0
tp3512
a(I0
I52
I56
I92
I2
tp3513
a(I20
I104
I48
I120
I4
tp3514
a(I36
I56
I60
I88
I1
tp3515
a(I16
I28
I36
I44
I9
tp3516
a(I4
I8
I52
I108
I4
tp3517
a(I44
I92
I60
I108
I6
tp3518
a(I28
I8
I44
I108
I2
tp3519
a(I8
I24
I36
I40
I9
tp3520
a(I32
I8
I56
I52
I2
tp3521
a(I20
I20
I60
I68
I4
tp3522
a(I24
I64
I48
I80
I4
tp3523
a(I36
I8
I60
I64
I1
tp3524
a(I8
I88
I32
I124
I0
tp3525
a(I24
I92
I44
I116
I6
tp3526
a(I4
I52
I44
I72
I5
tp3527
a(I0
I16
I16
I56
I2
tp3528
a(I8
I96
I28
I124
I3
tp3529
a(I44
I84
I60
I108
I7
tp3530
a(I16
I28
I44
I88
I0
tp3531
a(I28
I28
I48
I44
I6
tp3532
a(I0
I84
I16
I112
I2
tp3533
a(I8
I68
I24
I116
I4
tp3534
a(I24
I48
I40
I84
I1
tp3535
a(I8
I92
I32
I112
I5
tp3536
a(I44
I8
I60
I116
I9
tp3537
a(I12
I16
I44
I68
I9
tp3538
a(I24
I60
I56
I100
I2
tp3539
a(I36
I16
I60
I84
I1
tp3540
a(I44
I32
I60
I112
I1
tp3541
a(I12
I48
I32
I100
I4
tp3542
a(I28
I52
I44
I76
I1
tp3543
a(I16
I40
I40
I88
I1
tp3544
a(I28
I56
I52
I112
I7
tp3545
a(I0
I0
I36
I92
I4
tp3546
a(I44
I76
I60
I124
I8
tp3547
a(I24
I16
I40
I124
I7
tp3548
a(I40
I72
I60
I96
I6
tp3549
a(I44
I4
I60
I72
I9
tp3550
a(I0
I92
I60
I112
I4
tp3551
a(I0
I20
I32
I104
I9
tp3552
a(I32
I108
I48
I124
I6
tp3553
a(I24
I60
I44
I120
I6
tp3554
a(I12
I4
I48
I88
I5
tp3555
a(I28
I32
I60
I112
I1
tp3556
a(I32
I108
I52
I124
I7
tp3557
a(I36
I100
I60
I120
I7
tp3558
a(I32
I100
I48
I124
I5
tp3559
a(I4
I48
I48
I112
I6
tp3560
a(I32
I108
I56
I124
I9
tp3561
a(I24
I56
I56
I104
I1
tp3562
a(I24
I16
I44
I112
I4
tp3563
a(I4
I32
I44
I56
I9
tp3564
a(I4
I40
I24
I76
I7
tp3565
a(I28
I0
I44
I112
I8
tp3566
a(I24
I8
I40
I56
I9
tp3567
a(I16
I64
I32
I108
I5
tp3568
a(I40
I64
I56
I112
I4
tp3569
a(I0
I8
I20
I112
I5
tp3570
a(I28
I4
I56
I36
I6
tp3571
a(I16
I8
I44
I40
I5
tp3572
a(I12
I100
I52
I124
I7
tp3573
a(I36
I44
I60
I108
I4
tp3574
a(I44
I80
I60
I112
I3
tp3575
a(I16
I36
I52
I104
I2
tp3576
a(I16
I20
I52
I104
I5
tp3577
a(I36
I88
I52
I104
I3
tp3578
a(I28
I52
I56
I84
I9
tp3579
a(I12
I32
I44
I80
I1
tp3580
a(I0
I4
I60
I44
I7
tp3581
a(I0
I96
I48
I112
I3
tp3582
a(I4
I88
I28
I116
I9
tp3583
a(I20
I104
I36
I120
I6
tp3584
a(I28
I32
I52
I76
I9
tp3585
a(I16
I28
I36
I80
I4
tp3586
a(I4
I4
I44
I76
I0
tp3587
a(I44
I32
I60
I80
I7
tp3588
a(I8
I4
I44
I104
I2
tp3589
a(I8
I76
I32
I96
I9
tp3590
a(I44
I48
I60
I116
I8
tp3591
a(I32
I28
I60
I108
I2
tp3592
a(I32
I0
I56
I24
I9
tp3593
a(I28
I64
I56
I108
I3
tp3594
a(I32
I84
I60
I112
I2
tp3595
a(I16
I48
I52
I100
I0
tp3596
a(I0
I72
I24
I108
I1
tp3597
a(I28
I100
I56
I120
I8
tp3598
a(I16
I100
I44
I116
I9
tp3599
a(I16
I88
I44
I120
I0
tp3600
a(I16
I28
I60
I52
I0
tp3601
a(I28
I100
I44
I120
I0
tp3602
a(I4
I8
I40
I124
I9
tp3603
a(I32
I56
I48
I80
I0
tp3604
a(I8
I88
I36
I104
I3
tp3605
a(I28
I96
I44
I112
I9
tp3606
a(I36
I96
I56
I112
I8
tp3607
a(I8
I84
I28
I108
I1
tp3608
a(I20
I60
I40
I124
I7
tp3609
a(I40
I40
I56
I64
I7
tp3610
a(I16
I68
I60
I116
I8
tp3611
a(I36
I20
I52
I124
I4
tp3612
a(I44
I8
I60
I68
I2
tp3613
a(I44
I16
I60
I56
I0
tp3614
a(I12
I48
I60
I124
I4
tp3615
a(I12
I92
I48
I108
I6
tp3616
a(I0
I80
I16
I112
I8
tp3617
a(I20
I60
I60
I80
I3
tp3618
a(I36
I68
I60
I92
I3
tp3619
a(I4
I24
I52
I84
I5
tp3620
a(I20
I60
I56
I100
I9
tp3621
a(I32
I16
I52
I112
I6
tp3622
a(I20
I80
I52
I104
I1
tp3623
a(I0
I108
I32
I124
I4
tp3624
a(I16
I24
I56
I92
I9
tp3625
a(I20
I64
I40
I124
I6
tp3626
a(I4
I56
I52
I100
I6
tp3627
a(I24
I48
I56
I72
I0
tp3628
a(I24
I48
I44
I68
I0
tp3629
a(I0
I56
I20
I120
I2
tp3630
a(I28
I28
I60
I120
I0
tp3631
a(I16
I88
I40
I116
I3
tp3632
a(I32
I88
I48
I112
I0
tp3633
a(I0
I0
I16
I80
I2
tp3634
a(I36
I72
I56
I108
I0
tp3635
a(I24
I8
I44
I100
I5
tp3636
a(I4
I4
I48
I44
I1
tp3637
a(I28
I84
I56
I120
I3
tp3638
a(I40
I12
I56
I120
I3
tp3639
a(I44
I68
I60
I124
I7
tp3640
a(I20
I52
I52
I84
I8
tp3641
a(I40
I36
I56
I92
I5
tp3642
a(I4
I68
I48
I92
I2
tp3643
a(I0
I16
I32
I124
I3
tp3644
a(I12
I68
I52
I108
I6
tp3645
a(I12
I8
I28
I104
I6
tp3646
a(I32
I84
I60
I120
I5
tp3647
a(I44
I28
I60
I96
I7
tp3648
a(I16
I52
I56
I88
I5
tp3649
a(I36
I8
I60
I72
I6
tp3650
a(I16
I104
I32
I120
I6
tp3651
a(I40
I32
I56
I112
I0
tp3652
a(I44
I60
I60
I108
I8
tp3653
a(I4
I76
I44
I92
I6
tp3654
a(I32
I0
I52
I104
I1
tp3655
a(I44
I0
I60
I76
I6
tp3656
a(I8
I52
I56
I92
I6
tp3657
a(I24
I36
I44
I84
I3
tp3658
a(I4
I52
I44
I76
I5
tp3659
a(I20
I20
I48
I72
I4
tp3660
a(I12
I76
I52
I96
I6
tp3661
a(I0
I84
I36
I116
I1
tp3662
a(I16
I100
I36
I116
I1
tp3663
a(I44
I24
I60
I104
I5
tp3664
a(I24
I84
I56
I108
I3
tp3665
a(I8
I72
I32
I108
I9
tp3666
a(I20
I4
I52
I120
I2
tp3667
a(I36
I72
I52
I108
I9
tp3668
a(I40
I0
I60
I104
I1
tp3669
a(I16
I84
I60
I100
I2
tp3670
a(I4
I80
I52
I124
I0
tp3671
a(I44
I24
I60
I92
I1
tp3672
a(I32
I12
I48
I112
I4
tp3673
a(I44
I0
I60
I112
I8
tp3674
a(I32
I32
I60
I76
I3
tp3675
a(I36
I32
I60
I96
I7
tp3676
a(I0
I32
I52
I84
I7
tp3677
a(I20
I84
I36
I120
I6
tp3678
a(I0
I28
I60
I68
I8
tp3679
a(I20
I100
I48
I116
I6
tp3680
a(I40
I76
I56
I112
I8
tp3681
a(I8
I56
I24
I88
I3
tp3682
a(I0
I16
I56
I40
I9
tp3683
a(I16
I96
I52
I120
I6
tp3684
a(I4
I72
I60
I108
I0
tp3685
a(I40
I108
I56
I124
I8
tp3686
a(I16
I48
I56
I124
I0
tp3687
a(I20
I56
I48
I124
I3
tp3688
a(I20
I60
I48
I124
I4
tp3689
a(I8
I76
I52
I92
I8
tp3690
a(I0
I72
I40
I116
I5
tp3691
a(I40
I100
I60
I116
I9
tp3692
a(I24
I44
I52
I116
I5
tp3693
a(I32
I20
I56
I76
I8
tp3694
a(I44
I12
I60
I124
I9
tp3695
a(I0
I72
I48
I124
I0
tp3696
a(I40
I80
I56
I112
I7
tp3697
a(I12
I20
I44
I64
I2
tp3698
a(I0
I20
I32
I72
I2
tp3699
a(I28
I68
I60
I96
I9
tp3700
a(I4
I40
I48
I84
I6
tp3701
a(I16
I80
I44
I108
I8
tp3702
a(I0
I60
I44
I124
I5
tp3703
a(I24
I36
I56
I80
I3
tp3704
a(I28
I76
I60
I120
I8
tp3705
a(I16
I0
I40
I68
I8
tp3706
a(I36
I44
I52
I92
I4
tp3707
a(I44
I88
I60
I120
I7
tp3708
a(I4
I0
I60
I72
I5
tp3709
a(I16
I24
I56
I60
I6
tp3710
a(I24
I52
I44
I92
I2
tp3711
a(I16
I92
I52
I116
I6
tp3712
a(I16
I20
I44
I80
I2
tp3713
a(I40
I24
I60
I96
I5
tp3714
a(I12
I96
I52
I116
I8
tp3715
a(I24
I0
I52
I108
I6
tp3716
a(I32
I88
I52
I108
I4
tp3717
a(I4
I16
I52
I108
I2
tp3718
a(I28
I92
I48
I112
I4
tp3719
a(I24
I76
I40
I116
I2
tp3720
a(I16
I52
I56
I100
I8
tp3721
a(I28
I32
I52
I112
I0
tp3722
a(I8
I72
I28
I120
I6
tp3723
a(I32
I88
I52
I104
I3
tp3724
a(I40
I32
I60
I100
I9
tp3725
a(I24
I100
I52
I120
I4
tp3726
a(I0
I84
I44
I124
I9
tp3727
a(I44
I20
I60
I76
I2
tp3728
a(I28
I88
I48
I116
I8
tp3729
a(I4
I4
I36
I100
I3
tp3730
a(I0
I20
I20
I80
I9
tp3731
a(I16
I36
I40
I124
I6
tp3732
a(I44
I72
I60
I96
I7
tp3733
a(I0
I108
I32
I124
I5
tp3734
a(I28
I0
I60
I88
I2
tp3735
a(I40
I0
I56
I44
I0
tp3736
a(I40
I88
I56
I112
I9
tp3737
a(I4
I52
I36
I124
I1
tp3738
a(I12
I88
I36
I116
I5
tp3739
a(I4
I100
I52
I120
I2
tp3740
a(I4
I44
I52
I96
I8
tp3741
a(I40
I100
I60
I124
I2
tp3742
a(I40
I80
I60
I100
I5
tp3743
a(I40
I28
I60
I60
I4
tp3744
a(I12
I48
I48
I84
I1
tp3745
a(I24
I96
I56
I116
I1
tp3746
a(I20
I64
I40
I112
I8
tp3747
a(I4
I80
I44
I124
I2
tp3748
a(I32
I68
I60
I108
I0
tp3749
a(I36
I100
I60
I116
I9
tp3750
a(I32
I52
I52
I96
I9
tp3751
a(I32
I56
I56
I84
I6
tp3752
a(I16
I64
I56
I96
I2
tp3753
a(I44
I48
I60
I92
I0
tp3754
a(I28
I48
I48
I100
I5
tp3755
a(I32
I36
I52
I104
I7
tp3756
a(I8
I100
I24
I124
I4
tp3757
a(I0
I28
I48
I76
I2
tp3758
a(I24
I84
I40
I124
I2
tp3759
a(I8
I76
I44
I124
I2
tp3760
a(I36
I4
I60
I96
I7
tp3761
a(I8
I96
I36
I120
I5
tp3762
a(I16
I0
I36
I120
I2
tp3763
a(I12
I4
I48
I36
I0
tp3764
a(I8
I44
I40
I64
I4
tp3765
a(I20
I20
I56
I68
I0
tp3766
a(I44
I56
I60
I96
I0
tp3767
a(I8
I64
I28
I100
I2
tp3768
a(I16
I100
I36
I124
I7
tp3769
a(I44
I40
I60
I108
I3
tp3770
a(I20
I56
I36
I92
I0
tp3771
a(I12
I36
I28
I92
I4
tp3772
a(I36
I36
I52
I88
I9
tp3773
a(I0
I40
I48
I112
I2
tp3774
a(I4
I80
I52
I108
I6
tp3775
a(I16
I88
I60
I116
I3
tp3776
a(I16
I20
I56
I56
I5
tp3777
a(I24
I20
I48
I56
I5
tp3778
a(I0
I16
I24
I108
I9
tp3779
a(I20
I72
I60
I100
I0
tp3780
a(I36
I60
I56
I116
I1
tp3781
a(I24
I44
I44
I116
I3
tp3782
a(I24
I20
I52
I68
I5
tp3783
a(I8
I44
I40
I88
I6
tp3784
a(I4
I96
I48
I112
I0
tp3785
a(I20
I68
I36
I124
I0
tp3786
a(I8
I108
I48
I124
I3
tp3787
a(I16
I24
I52
I76
I4
tp3788
a(I0
I72
I24
I112
I6
tp3789
a(I20
I40
I60
I112
I1
tp3790
a(I28
I72
I44
I104
I9
tp3791
a(I4
I48
I56
I100
I2
tp3792
a(I36
I72
I52
I108
I7
tp3793
a(I32
I44
I60
I80
I4
tp3794
a(I28
I20
I44
I96
I4
tp3795
a(I0
I44
I36
I84
I6
tp3796
a(I28
I44
I60
I120
I7
tp3797
a(I0
I64
I20
I116
I2
tp3798
a(I4
I44
I36
I104
I0
tp3799
a(I28
I28
I44
I76
I8
tp3800
a(I32
I84
I48
I112
I8
tp3801
a(I24
I40
I52
I84
I8
tp3802
a(I12
I24
I28
I56
I2
tp3803
a(I16
I16
I56
I48
I1
tp3804
a(I20
I100
I44
I116
I7
tp3805
a(I4
I80
I48
I112
I1
tp3806
a(I20
I88
I44
I104
I2
tp3807
a(I32
I76
I56
I92
I4
tp3808
a(I8
I60
I40
I76
I6
tp3809
a(I40
I28
I60
I104
I7
tp3810
a(I28
I100
I60
I120
I4
tp3811
a(I44
I64
I60
I124
I5
tp3812
a(I16
I44
I56
I64
I3
tp3813
a(I24
I40
I56
I96
I2
tp3814
a(I32
I20
I56
I92
I9
tp3815
a(I0
I40
I40
I68
I3
tp3816
a(I28
I64
I56
I112
I6
tp3817
a(I0
I16
I48
I104
I1
tp3818
a(I32
I68
I60
I112
I8
tp3819
a(I8
I20
I56
I104
I8
tp3820
a(I0
I80
I32
I100
I3
tp3821
a(I8
I68
I60
I112
I0
tp3822
a(I28
I28
I44
I120
I6
tp3823
a(I36
I4
I52
I112
I3
tp3824
a(I16
I72
I60
I124
I4
tp3825
a(I44
I24
I60
I68
I9
tp3826
a(I32
I68
I60
I100
I8
tp3827
a(I12
I28
I36
I76
I6
tp3828
a(I8
I0
I52
I116
I9
tp3829
a(I0
I76
I60
I116
I6
tp3830
a(I20
I72
I36
I100
I9
tp3831
a(I28
I52
I60
I104
I1
tp3832
a(I28
I64
I60
I100
I2
tp3833
a(I32
I92
I48
I124
I2
tp3834
a(I4
I80
I56
I112
I2
tp3835
a(I12
I44
I36
I124
I8
tp3836
a(I24
I76
I44
I116
I0
tp3837
a(I32
I64
I48
I84
I2
tp3838
a(I36
I12
I60
I44
I0
tp3839
a(I16
I60
I52
I112
I3
tp3840
a(I40
I16
I56
I40
I4
tp3841
a(I12
I20
I40
I84
I8
tp3842
a(I32
I68
I56
I96
I9
tp3843
a(I24
I84
I56
I108
I5
tp3844
a(I0
I68
I24
I104
I6
tp3845
a(I40
I60
I56
I92
I3
tp3846
a(I20
I88
I40
I116
I2
tp3847
a(I24
I52
I40
I88
I6
tp3848
a(I4
I72
I32
I108
I9
tp3849
a(I0
I104
I16
I120
I3
tp3850
a(I36
I32
I52
I80
I4
tp3851
a(I44
I104
I60
I124
I6
tp3852
a(I44
I8
I60
I44
I9
tp3853
a(I16
I64
I48
I112
I6
tp3854
a(I12
I48
I60
I96
I7
tp3855
a(I12
I84
I48
I112
I9
tp3856
a(I32
I48
I52
I100
I7
tp3857
a(I8
I36
I28
I72
I3
tp3858
a(I44
I0
I60
I100
I8
tp3859
a(I12
I100
I56
I120
I8
tp3860
a(I28
I68
I48
I104
I1
tp3861
a(I8
I60
I44
I120
I0
tp3862
a(I36
I8
I52
I124
I9
tp3863
a(I8
I20
I24
I48
I3
tp3864
a(I4
I60
I20
I96
I3
tp3865
a(I40
I0
I56
I28
I9
tp3866
a(I24
I32
I48
I96
I8
tp3867
a(I4
I76
I36
I116
I0
tp3868
a(I24
I68
I52
I120
I7
tp3869
a(I4
I84
I44
I124
I7
tp3870
a(I44
I68
I60
I84
I9
tp3871
a(I36
I68
I60
I84
I4
tp3872
a(I32
I96
I56
I120
I0
tp3873
a(I24
I68
I48
I116
I5
tp3874
a(I16
I56
I36
I120
I7
tp3875
a(I44
I104
I60
I120
I4
tp3876
a(I4
I72
I56
I104
I7
tp3877
a(I32
I100
I48
I116
I0
tp3878
a(I24
I80
I56
I104
I0
tp3879
a(I28
I44
I44
I124
I7
tp3880
a(I32
I56
I56
I80
I2
tp3881
a(I44
I36
I60
I68
I9
tp3882
a(I24
I0
I48
I112
I1
tp3883
a(I12
I60
I48
I124
I6
tp3884
a(I8
I44
I56
I104
I2
tp3885
a(I28
I56
I60
I72
I1
tp3886
a(I12
I0
I32
I124
I1
tp3887
a(I0
I104
I36
I124
I4
tp3888
a(I8
I64
I36
I96
I9
tp3889
a(I8
I96
I28
I116
I5
tp3890
a(I32
I56
I56
I108
I0
tp3891
a(I28
I48
I52
I64
I2
tp3892
a(I12
I108
I60
I124
I3
tp3893
a(I24
I28
I48
I48
I6
tp3894
a(I0
I80
I52
I104
I5
tp3895
a(I24
I80
I44
I108
I2
tp3896
a(I12
I0
I32
I104
I1
tp3897
a(I0
I56
I36
I112
I2
tp3898
a(I44
I76
I60
I120
I9
tp3899
a(I8
I104
I52
I124
I1
tp3900
a(I24
I76
I60
I116
I7
tp3901
a(I12
I84
I40
I116
I0
tp3902
a(I32
I24
I48
I72
I2
tp3903
a(I0
I0
I44
I64
I6
tp3904
a(I32
I56
I60
I112
I0
tp3905
a(I16
I52
I56
I88
I3
tp3906
a(I32
I24
I52
I108
I5
tp3907
a(I40
I96
I60
I112
I9
tp3908
a(I32
I84
I52
I100
I2
tp3909
a(I28
I32
I48
I48
I9
tp3910
a(I44
I12
I60
I80
I9
tp3911
a(I16
I44
I44
I80
I9
tp3912
a(I44
I84
I60
I104
I5
tp3913
a(I8
I92
I36
I112
I0
tp3914
a(I12
I92
I52
I108
I5
tp3915
a(I8
I88
I56
I104
I2
tp3916
a(I20
I96
I44
I120
I2
tp3917
a(I20
I64
I40
I116
I6
tp3918
a(I28
I76
I56
I120
I4
tp3919
a(I40
I36
I60
I92
I1
tp3920
a(I16
I48
I44
I124
I6
tp3921
a(I0
I96
I44
I120
I2
tp3922
a(I12
I56
I36
I116
I1
tp3923
a(I4
I60
I40
I104
I3
tp3924
a(I44
I40
I60
I68
I4
tp3925
a(I4
I8
I48
I88
I0
tp3926
a(I44
I80
I60
I120
I3
tp3927
a(I0
I96
I48
I120
I3
tp3928
a(I20
I60
I36
I112
I6
tp3929
a(I20
I36
I40
I100
I9
tp3930
a(I28
I92
I52
I108
I0
tp3931
a(I8
I92
I48
I124
I6
tp3932
a(I20
I12
I52
I124
I5
tp3933
a(I28
I20
I44
I88
I3
tp3934
a(I44
I64
I60
I116
I4
tp3935
a(I36
I28
I52
I108
I2
tp3936
a(I28
I108
I56
I124
I5
tp3937
a(I12
I100
I56
I124
I3
tp3938
a(I44
I44
I60
I124
I4
tp3939
a(I44
I8
I60
I96
I1
tp3940
a(I28
I108
I60
I124
I3
tp3941
a(I20
I68
I40
I112
I0
tp3942
a(I8
I12
I52
I60
I0
tp3943
a(I28
I56
I48
I72
I9
tp3944
a(I8
I52
I48
I84
I1
tp3945
a(I12
I104
I32
I120
I0
tp3946
a(I20
I96
I48
I116
I0
tp3947
a(I36
I56
I56
I72
I9
tp3948
a(I28
I108
I56
I124
I8
tp3949
a(I32
I80
I48
I96
I5
tp3950
a(I40
I92
I60
I108
I3
tp3951
a(I28
I60
I44
I92
I0
tp3952
a(I20
I0
I36
I92
I8
tp3953
a(I4
I104
I44
I120
I7
tp3954
a(I8
I96
I40
I120
I2
tp3955
a(I36
I92
I60
I116
I2
tp3956
a(I28
I56
I44
I72
I1
tp3957
a(I40
I4
I60
I76
I6
tp3958
a(I24
I24
I56
I48
I1
tp3959
a(I28
I84
I56
I104
I9
tp3960
a(I40
I24
I60
I60
I8
tp3961
a(I28
I68
I48
I108
I4
tp3962
a(I20
I40
I36
I104
I6
tp3963
a(I0
I100
I24
I124
I4
tp3964
a(I24
I108
I40
I124
I4
tp3965
a(I4
I48
I60
I92
I8
tp3966
a(I8
I36
I52
I84
I3
tp3967
a(I40
I104
I60
I120
I6
tp3968
a(I24
I16
I52
I44
I8
tp3969
a(I16
I20
I56
I80
I1
tp3970
a(I12
I40
I32
I84
I6
tp3971
a(I16
I56
I48
I116
I3
tp3972
a(I24
I80
I60
I120
I2
tp3973
a(I4
I20
I40
I52
I2
tp3974
a(I40
I16
I60
I116
I0
tp3975
a(I24
I32
I44
I84
I9
tp3976
a(I12
I0
I56
I48
I6
tp3977
a(I8
I56
I56
I100
I8
tp3978
a(I40
I8
I60
I32
I3
tp3979
a(I32
I84
I48
I116
I5
tp3980
a(I44
I52
I60
I124
I4
tp3981
a(I12
I108
I44
I124
I2
tp3982
a(I16
I4
I48
I92
I5
tp3983
a(I16
I12
I32
I104
I8
tp3984
a(I16
I92
I48
I124
I4
tp3985
a(I0
I84
I28
I120
I7
tp3986
a(I40
I36
I56
I88
I6
tp3987
a(I4
I20
I24
I84
I9
tp3988
a(I0
I36
I40
I116
I1
tp3989
a(I36
I56
I56
I120
I2
tp3990
a(I16
I0
I52
I80
I9
tp3991
a(I44
I88
I60
I120
I7
tp3992
a(I8
I56
I56
I92
I8
tp3993
a(I40
I48
I56
I72
I8
tp3994
a(I12
I100
I44
I124
I8
tp3995
a(I12
I96
I60
I120
I9
tp3996
a(I0
I64
I20
I108
I1
tp3997
a(I0
I76
I32
I104
I1
tp3998
a(I32
I36
I52
I76
I2
tp3999
a(I28
I36
I56
I112
I1
tp4000
a(I44
I16
I60
I80
I9
tp4001
a(I28
I52
I52
I76
I3
tp4002
a(I44
I20
I60
I60
I3
tp4003
a(I4
I96
I52
I120
I9
tp4004
a(I8
I32
I52
I56
I1
tp4005
a(I20
I72
I48
I116
I1
tp4006
a(I40
I12
I60
I108
I3
tp4007
a(I32
I56
I52
I116
I1
tp4008
a(I44
I36
I60
I56
I9
tp4009
a(I24
I64
I52
I124
I6
tp4010
a(I32
I68
I60
I88
I8
tp4011
a(I8
I52
I44
I104
I0
tp4012
a(I4
I80
I40
I120
I4
tp4013
a(I24
I28
I56
I52
I9
tp4014
a(I32
I52
I60
I68
I8
tp4015
a(I4
I40
I20
I56
I9
tp4016
a(I32
I8
I60
I24
I9
tp4017
a(I8
I40
I48
I100
I1
tp4018
a(I36
I24
I56
I108
I0
tp4019
a(I32
I24
I52
I112
I1
tp4020
a(I12
I80
I28
I104
I8
tp4021
a(I28
I68
I48
I120
I6
tp4022
a(I28
I64
I44
I120
I6
tp4023
a(I28
I24
I44
I80
I6
tp4024
a(I20
I28
I60
I56
I8
tp4025
a(I8
I0
I32
I124
I2
tp4026
a(I20
I96
I56
I120
I4
tp4027
a(I36
I96
I60
I124
I9
tp4028
a(I36
I84
I52
I108
I2
tp4029
a(I8
I20
I40
I44
I5
tp4030
a(I24
I12
I48
I92
I5
tp4031
a(I24
I52
I56
I108
I2
tp4032
a(I8
I60
I52
I124
I3
tp4033
a(I40
I100
I60
I116
I1
tp4034
a(I20
I4
I44
I104
I1
tp4035
a(I12
I68
I32
I96
I1
tp4036
a(I40
I52
I56
I116
I6
tp4037
a(I16
I76
I48
I116
I2
tp4038
a(I16
I52
I56
I120
I9
tp4039
a(I16
I92
I32
I124
I0
tp4040
a(I28
I32
I60
I124
I8
tp4041
a(I40
I108
I60
I124
I9
tp4042
a(I16
I64
I32
I120
I8
tp4043
a(I16
I8
I40
I76
I6
tp4044
a(I24
I88
I52
I112
I8
tp4045
a(I0
I44
I40
I96
I9
tp4046
a(I40
I36
I56
I72
I8
tp4047
a(I40
I16
I60
I112
I7
tp4048
a(I12
I68
I32
I100
I3
tp4049
a(I8
I20
I36
I96
I7
tp4050
a(I20
I56
I60
I88
I5
tp4051
a(I0
I96
I24
I112
I2
tp4052
a(I20
I24
I60
I120
I5
tp4053
a(I0
I28
I16
I112
I6
tp4054
a(I16
I52
I48
I120
I5
tp4055
a(I40
I72
I56
I116
I0
tp4056
a(I40
I76
I60
I108
I6
tp4057
a(I4
I68
I52
I100
I4
tp4058
a(I12
I84
I60
I124
I7
tp4059
a(I36
I52
I52
I104
I3
tp4060
a(I44
I36
I60
I88
I9
tp4061
a(I0
I32
I48
I96
I8
tp4062
a(I8
I96
I44
I124
I4
tp4063
a(I4
I84
I28
I104
I5
tp4064
a(I36
I104
I60
I120
I1
tp4065
a(I28
I96
I52
I124
I8
tp4066
a(I16
I100
I56
I120
I7
tp4067
a(I12
I100
I56
I124
I7
tp4068
a(I0
I64
I24
I92
I6
tp4069
a(I28
I100
I44
I120
I9
tp4070
a(I0
I40
I52
I100
I2
tp4071
a(I32
I96
I60
I112
I6
tp4072
a(I24
I108
I40
I124
I3
tp4073
a(I8
I20
I40
I76
I0
tp4074
a(I36
I48
I60
I104
I9
tp4075
a(I28
I68
I52
I104
I4
tp4076
a(I20
I36
I48
I68
I4
tp4077
a(I28
I80
I52
I116
I8
tp4078
a(I4
I24
I28
I60
I6
tp4079
a(I0
I40
I40
I76
I3
tp4080
a(I24
I40
I52
I60
I1
tp4081
a(I16
I108
I48
I124
I3
tp4082
a(I20
I88
I40
I108
I5
tp4083
a(I4
I76
I40
I104
I9
tp4084
a(I36
I108
I60
I124
I3
tp4085
a(I28
I52
I44
I112
I3
tp4086
a(I40
I20
I56
I108
I3
tp4087
a(I44
I32
I60
I124
I0
tp4088
a(I32
I80
I48
I116
I4
tp4089
a(I32
I60
I56
I88
I1
tp4090
a(I36
I80
I52
I116
I3
tp4091
a(I24
I8
I60
I72
I7
tp4092
a(I0
I44
I44
I60
I5
tp4093
a(I28
I80
I60
I108
I2
tp4094
a(I16
I44
I40
I68
I0
tp4095
a(I28
I12
I56
I92
I9
tp4096
a(I44
I88
I60
I112
I4
tp4097
a(I4
I4
I48
I28
I7
tp4098
a(I8
I60
I40
I100
I2
tp4099
a(I36
I108
I60
I124
I8
tp4100
a(I12
I12
I56
I28
I9
tp4101
a(I24
I92
I56
I108
I7
tp4102
a(I20
I8
I40
I36
I7
tp4103
a(I24
I20
I44
I104
I9
tp4104
a(I12
I20
I56
I52
I4
tp4105
a(I36
I40
I56
I104
I1
tp4106
a(I8
I52
I60
I96
I9
tp4107
a(I36
I76
I52
I124
I2
tp4108
a(I32
I68
I56
I120
I3
tp4109
a(I16
I0
I36
I76
I7
tp4110
a(I40
I28
I60
I104
I2
tp4111
a(I24
I4
I40
I120
I6
tp4112
a(I28
I36
I56
I88
I3
tp4113
a(I32
I48
I56
I104
I8
tp4114
a(I4
I52
I56
I76
I1
tp4115
a(I0
I64
I40
I124
I6
tp4116
a(I44
I92
I60
I120
I7
tp4117
a(I28
I4
I44
I92
I4
tp4118
a(I28
I80
I52
I120
I7
tp4119
a(I0
I72
I48
I116
I5
tp4120
a(I40
I24
I56
I108
I0
tp4121
a(I0
I28
I36
I92
I1
tp4122
a(I28
I48
I52
I80
I6
tp4123
a(I20
I60
I36
I92
I6
tp4124
a(I24
I44
I52
I112
I4
tp4125
a(I24
I0
I60
I32
I1
tp4126
a(I36
I96
I60
I124
I4
tp4127
a(I4
I76
I56
I92
I2
tp4128
a(I40
I68
I60
I124
I9
tp4129
a(I36
I36
I56
I120
I9
tp4130
a(I16
I96
I56
I116
I0
tp4131
a(I4
I4
I36
I76
I3
tp4132
a(I4
I84
I20
I112
I2
tp4133
a(I12
I100
I60
I124
I4
tp4134
a(I36
I88
I56
I112
I2
tp4135
a(I16
I84
I32
I108
I0
tp4136
a(I12
I108
I52
I124
I3
tp4137
a(I28
I4
I56
I96
I4
tp4138
a(I28
I4
I56
I56
I6
tp4139
a(I16
I40
I40
I108
I4
tp4140
a(I4
I76
I48
I108
I2
tp4141
a(I44
I48
I60
I68
I6
tp4142
a(I36
I56
I56
I116
I4
tp4143
a(I0
I76
I24
I124
I9
tp4144
a(I8
I4
I56
I32
I8
tp4145
a(I24
I8
I48
I112
I3
tp4146
a(I12
I56
I44
I96
I4
tp4147
a(I24
I100
I48
I124
I6
tp4148
a(I40
I12
I56
I108
I8
tp4149
a(I32
I44
I48
I76
I0
tp4150
a(I4
I108
I32
I124
I8
tp4151
a(I40
I84
I56
I124
I6
tp4152
a(I36
I60
I60
I120
I7
tp4153
a(I4
I40
I24
I92
I8
tp4154
a(I20
I60
I56
I84
I2
tp4155
a(I40
I56
I60
I108
I7
tp4156
a(I28
I88
I52
I124
I2
tp4157
a(I4
I36
I36
I104
I4
tp4158
a(I12
I24
I28
I60
I5
tp4159
a(I20
I28
I56
I92
I7
tp4160
a(I20
I96
I56
I120
I0
tp4161
a(I44
I100
I60
I120
I6
tp4162
a(I20
I4
I40
I48
I5
tp4163
a(I0
I100
I36
I124
I9
tp4164
a(I20
I56
I48
I80
I3
tp4165
a(I40
I20
I60
I40
I1
tp4166
a(I4
I48
I52
I88
I1
tp4167
a(I32
I52
I60
I108
I9
tp4168
a(I28
I40
I48
I120
I7
tp4169
a(I40
I20
I56
I100
I3
tp4170
a(I0
I68
I44
I100
I2
tp4171
a(I24
I4
I40
I124
I5
tp4172
a(I24
I64
I52
I84
I2
tp4173
a(I28
I0
I60
I72
I3
tp4174
a(I40
I60
I56
I92
I6
tp4175
a(I8
I44
I28
I80
I3
tp4176
a(I8
I52
I44
I124
I7
tp4177
a(I16
I44
I36
I116
I3
tp4178
a(I8
I64
I52
I124
I4
tp4179
a(I8
I48
I28
I92
I4
tp4180
a(I44
I48
I60
I124
I0
tp4181
a(I28
I108
I60
I124
I6
tp4182
a(I44
I44
I60
I124
I5
tp4183
a(I36
I72
I60
I116
I3
tp4184
a(I0
I64
I32
I92
I6
tp4185
a(I44
I12
I60
I68
I0
tp4186
a(I36
I36
I60
I72
I6
tp4187
a(I4
I68
I52
I96
I0
tp4188
a(I4
I44
I36
I116
I2
tp4189
a(I8
I80
I24
I120
I7
tp4190
a(I20
I36
I40
I60
I7
tp4191
a(I36
I36
I52
I92
I1
tp4192
a(I40
I100
I60
I124
I7
tp4193
a(I20
I0
I40
I20
I4
tp4194
a(I20
I100
I40
I116
I3
tp4195
a(I20
I80
I48
I124
I3
tp4196
a(I4
I100
I28
I116
I0
tp4197
a(I36
I4
I56
I112
I4
tp4198
a(I4
I68
I20
I108
I0
tp4199
a(I32
I68
I56
I84
I2
tp4200
a(I20
I80
I56
I104
I3
tp4201
a(I28
I52
I52
I84
I4
tp4202
a(I8
I76
I60
I108
I8
tp4203
a(I4
I56
I28
I104
I6
tp4204
a(I12
I32
I48
I120
I7
tp4205
a(I40
I40
I56
I72
I2
tp4206
a(I44
I88
I60
I120
I9
tp4207
a(I0
I104
I48
I124
I5
tp4208
a(I8
I12
I40
I64
I4
tp4209
a(I44
I40
I60
I56
I1
tp4210
a(I44
I100
I60
I120
I9
tp4211
a(I20
I88
I52
I124
I9
tp4212
a(I8
I108
I44
I124
I3
tp4213
a(I44
I8
I60
I40
I8
tp4214
a(I40
I20
I60
I76
I3
tp4215
a(I36
I52
I60
I116
I4
tp4216
a(I4
I88
I52
I124
I9
tp4217
a(I8
I68
I24
I108
I4
tp4218
a(I8
I40
I32
I80
I8
tp4219
a(I32
I16
I60
I68
I0
tp4220
a(I4
I20
I60
I60
I1
tp4221
a(I40
I56
I56
I84
I7
tp4222
a(I28
I84
I52
I108
I0
tp4223
a(I40
I80
I60
I120
I3
tp4224
a(I12
I76
I44
I96
I7
tp4225
a(I24
I12
I60
I100
I5
tp4226
a(I44
I44
I60
I108
I5
tp4227
a(I28
I40
I60
I104
I7
tp4228
a(I32
I20
I60
I96
I4
tp4229
a(I28
I92
I52
I116
I9
tp4230
a(I28
I44
I52
I92
I8
tp4231
a(I4
I28
I32
I64
I8
tp4232
a(I0
I104
I52
I120
I3
tp4233
a(I24
I92
I44
I116
I8
tp4234
a(I32
I28
I52
I72
I6
tp4235
a(I20
I96
I52
I116
I5
tp4236
a(I4
I88
I44
I108
I2
tp4237
a(I16
I8
I36
I124
I2
tp4238
a(I28
I56
I52
I112
I6
tp4239
a(I16
I0
I40
I64
I7
tp4240
a(I28
I104
I48
I124
I9
tp4241
a(I12
I88
I56
I112
I6
tp4242
a(I36
I92
I52
I120
I0
tp4243
a(I12
I96
I56
I120
I1
tp4244
a(I28
I108
I56
I124
I2
tp4245
a(I32
I16
I52
I108
I4
tp4246
a(I4
I72
I60
I112
I2
tp4247
a(I12
I72
I52
I100
I2
tp4248
a(I28
I36
I60
I64
I4
tp4249
a(I0
I68
I56
I96
I6
tp4250
a(I40
I8
I60
I84
I6
tp4251
a(I4
I88
I48
I116
I0
tp4252
a(I4
I52
I28
I108
I8
tp4253
a(I4
I16
I60
I104
I2
tp4254
a(I0
I76
I56
I104
I4
tp4255
a(I12
I56
I28
I116
I2
tp4256
a(I24
I88
I56
I108
I8
tp4257
a(I28
I76
I60
I124
I4
tp4258
a(I8
I88
I28
I120
I9
tp4259
a(I0
I96
I16
I124
I5
tp4260
a(I12
I56
I32
I92
I2
tp4261
a(I0
I24
I52
I112
I3
tp4262
a(I24
I72
I44
I88
I8
tp4263
a(I44
I32
I60
I76
I7
tp4264
a(I4
I100
I56
I116
I3
tp4265
a(I32
I56
I56
I104
I0
tp4266
a(I8
I40
I56
I124
I1
tp4267
a(I12
I8
I28
I96
I1
tp4268
a(I44
I104
I60
I120
I9
tp4269
a(I32
I52
I56
I92
I4
tp4270
a(I12
I72
I36
I92
I2
tp4271
a(I36
I92
I60
I116
I5
tp4272
a(I36
I76
I60
I108
I5
tp4273
a(I44
I64
I60
I100
I3
tp4274
a(I40
I44
I60
I88
I9
tp4275
a(I16
I96
I60
I120
I0
tp4276
a(I36
I80
I52
I96
I5
tp4277
a(I32
I84
I48
I116
I9
tp4278
a(I44
I48
I60
I116
I6
tp4279
a(I8
I76
I60
I124
I0
tp4280
a(I28
I60
I48
I116
I6
tp4281
a(I44
I36
I60
I112
I1
tp4282
a(I0
I76
I60
I112
I1
tp4283
a(I28
I12
I56
I112
I6
tp4284
a(I8
I0
I44
I68
I7
tp4285
a(I24
I88
I44
I124
I8
tp4286
a(I4
I60
I20
I120
I7
tp4287
a(I24
I92
I44
I108
I0
tp4288
a(I36
I52
I56
I72
I0
tp4289
a(I24
I92
I56
I120
I9
tp4290
a(I36
I8
I56
I92
I5
tp4291
a(I8
I72
I40
I100
I9
tp4292
a(I16
I72
I36
I104
I5
tp4293
a(I20
I60
I60
I100
I1
tp4294
a(I36
I44
I56
I80
I9
tp4295
a(I40
I52
I60
I112
I7
tp4296
a(I0
I12
I24
I56
I6
tp4297
a(I16
I40
I60
I100
I8
tp4298
a(I32
I56
I60
I92
I9
tp4299
a(I24
I32
I56
I112
I7
tp4300
a(I28
I24
I56
I56
I3
tp4301
a(I44
I36
I60
I52
I6
tp4302
a(I4
I12
I32
I52
I2
tp4303
a(I44
I64
I60
I104
I6
tp4304
a(I28
I92
I52
I112
I4
tp4305
a(I36
I104
I52
I120
I8
tp4306
a(I12
I8
I60
I80
I8
tp4307
a(I16
I100
I56
I124
I2
tp4308
a(I4
I44
I48
I120
I0
tp4309
a(I20
I0
I44
I36
I3
tp4310
a(I28
I40
I48
I68
I5
tp4311
a(I12
I56
I52
I88
I0
tp4312
a(I40
I100
I56
I124
I1
tp4313
a(I32
I56
I48
I72
I0
tp4314
a(I24
I60
I44
I104
I0
tp4315
a(I28
I104
I48
I124
I1
tp4316
a(I16
I12
I60
I60
I6
tp4317
a(I40
I28
I56
I56
I9
tp4318
a(I36
I92
I52
I120
I5
tp4319
a(I20
I12
I48
I36
I4
tp4320
a(I28
I108
I56
I124
I1
tp4321
a(I32
I4
I52
I32
I1
tp4322
a(I20
I84
I52
I124
I9
tp4323
a(I28
I0
I56
I112
I5
tp4324
a(I32
I44
I56
I60
I0
tp4325
a(I36
I24
I60
I124
I4
tp4326
a(I0
I100
I28
I116
I3
tp4327
a(I36
I48
I60
I64
I1
tp4328
a(I0
I96
I24
I112
I5
tp4329
a(I0
I108
I60
I124
I3
tp4330
a(I12
I28
I40
I80
I6
tp4331
a(I16
I84
I40
I116
I1
tp4332
a(I36
I84
I52
I112
I7
tp4333
a(I36
I72
I60
I100
I9
tp4334
a(I8
I92
I52
I112
I1
tp4335
a(I8
I100
I60
I124
I5
tp4336
a(I4
I64
I48
I108
I3
tp4337
a(I4
I52
I36
I108
I3
tp4338
a(I32
I16
I60
I80
I2
tp4339
a(I32
I16
I56
I52
I8
tp4340
a(I16
I100
I60
I116
I8
tp4341
a(I44
I40
I60
I68
I3
tp4342
a(I0
I0
I56
I40
I7
tp4343
a(I20
I48
I60
I72
I1
tp4344
a(I28
I16
I48
I52
I5
tp4345
a(I16
I60
I52
I80
I7
tp4346
a(I44
I32
I60
I120
I6
tp4347
a(I40
I0
I60
I48
I7
tp4348
a(I28
I92
I48
I120
I2
tp4349
a(I16
I52
I48
I112
I8
tp4350
a(I0
I16
I32
I72
I2
tp4351
a(I20
I108
I40
I124
I4
tp4352
a(I28
I80
I56
I124
I9
tp4353
a(I8
I48
I24
I112
I1
tp4354
a(I16
I32
I44
I124
I7
tp4355
a(I0
I72
I40
I88
I2
tp4356
a(I24
I36
I52
I80
I4
tp4357
a(I8
I40
I32
I72
I4
tp4358
a(I32
I100
I52
I120
I7
tp4359
a(I8
I96
I44
I124
I1
tp4360
a(I44
I88
I60
I112
I9
tp4361
a(I20
I52
I60
I116
I9
tp4362
a(I44
I40
I60
I112
I3
tp4363
a(I28
I96
I48
I112
I4
tp4364
a(I28
I88
I60
I124
I5
tp4365
a(I12
I48
I28
I72
I7
tp4366
a(I28
I8
I56
I112
I6
tp4367
a(I36
I52
I56
I108
I3
tp4368
a(I40
I60
I60
I120
I2
tp4369
a(I28
I20
I48
I64
I2
tp4370
a(I28
I60
I48
I84
I0
tp4371
a(I12
I32
I40
I80
I3
tp4372
a(I24
I32
I60
I64
I3
tp4373
a(I0
I52
I36
I108
I9
tp4374
a(I44
I12
I60
I36
I1
tp4375
a(I0
I88
I32
I104
I0
tp4376
a(I28
I32
I60
I96
I1
tp4377
a(I20
I80
I48
I104
I4
tp4378
a(I20
I104
I44
I120
I4
tp4379
a(I4
I4
I40
I36
I7
tp4380
a(I28
I40
I56
I60
I1
tp4381
a(I0
I20
I56
I80
I9
tp4382
a(I28
I88
I56
I120
I5
tp4383
a(I28
I36
I52
I64
I3
tp4384
a(I44
I48
I60
I88
I1
tp4385
a(I16
I92
I40
I124
I0
tp4386
a(I44
I20
I60
I108
I2
tp4387
a(I36
I68
I56
I116
I6
tp4388
a(I28
I52
I48
I76
I4
tp4389
a(I12
I72
I44
I100
I8
tp4390
a(I32
I92
I52
I108
I5
tp4391
a(I20
I24
I52
I48
I9
tp4392
a(I40
I36
I60
I120
I2
tp4393
a(I24
I16
I40
I36
I9
tp4394
a(I20
I100
I52
I116
I3
tp4395
a(I32
I64
I60
I84
I6
tp4396
a(I40
I48
I60
I116
I2
tp4397
a(I44
I44
I60
I108
I6
tp4398
a(I36
I28
I52
I112
I1
tp4399
a(I32
I0
I60
I48
I6
tp4400
a(I8
I60
I56
I76
I9
tp4401
a(I8
I80
I48
I100
I7
tp4402
a(I12
I84
I56
I116
I5
tp4403
a(I4
I48
I40
I92
I2
tp4404
a(I36
I60
I56
I88
I5
tp4405
a(I24
I48
I40
I100
I7
tp4406
a(I16
I20
I52
I100
I7
tp4407
a(I20
I60
I56
I88
I5
tp4408
a(I44
I4
I60
I116
I1
tp4409
a(I4
I80
I20
I116
I3
tp4410
a(I44
I36
I60
I100
I3
tp4411
a(I8
I32
I28
I76
I5
tp4412
a(I28
I84
I56
I120
I2
tp4413
a(I40
I68
I60
I112
I7
tp4414
a(I16
I80
I36
I104
I8
tp4415
a(I24
I12
I44
I124
I4
tp4416
a(I40
I108
I56
I124
I5
tp4417
a(I8
I72
I24
I108
I5
tp4418
a(I32
I64
I48
I96
I2
tp4419
a(I20
I88
I36
I120
I0
tp4420
a(I4
I100
I24
I124
I0
tp4421
a(I28
I68
I48
I124
I2
tp4422
a(I4
I60
I28
I120
I2
tp4423
a(I28
I36
I52
I112
I7
tp4424
a(I36
I84
I60
I100
I6
tp4425
a(I36
I28
I56
I80
I4
tp4426
a(I44
I76
I60
I120
I4
tp4427
a(I28
I72
I60
I100
I7
tp4428
a(I12
I76
I52
I100
I0
tp4429
a(I4
I60
I32
I116
I0
tp4430
a(I32
I52
I60
I108
I8
tp4431
a(I32
I80
I48
I104
I8
tp4432
a(I44
I88
I60
I108
I5
tp4433
a(I4
I96
I60
I116
I8
tp4434
a(I8
I28
I48
I100
I3
tp4435
a(I44
I80
I60
I104
I5
tp4436
a(I40
I100
I56
I124
I6
tp4437
a(I36
I72
I60
I100
I1
tp4438
a(I12
I64
I40
I100
I9
tp4439
a(I20
I68
I52
I96
I3
tp4440
a(I20
I12
I44
I44
I7
tp4441
a(I4
I0
I32
I92
I1
tp4442
a(I44
I56
I60
I116
I9
tp4443
a(I40
I4
I56
I72
I5
tp4444
a(I40
I4
I60
I24
I6
tp4445
a(I36
I32
I56
I112
I2
tp4446
a(I8
I104
I40
I124
I7
tp4447
a(I0
I24
I16
I52
I2
tp4448
a(I4
I104
I40
I124
I5
tp4449
a(I8
I12
I32
I112
I6
tp4450
a(I12
I60
I36
I124
I4
tp4451
a(I0
I104
I44
I124
I6
tp4452
a(I44
I48
I60
I124
I1
tp4453
a(I20
I68
I36
I84
I9
tp4454
a(I24
I24
I40
I108
I3
tp4455
a(I32
I36
I56
I56
I0
tp4456
a(I8
I56
I60
I84
I1
tp4457
a(I36
I64
I60
I100
I9
tp4458
a(I20
I104
I52
I120
I9
tp4459
a(I16
I44
I44
I60
I5
tp4460
a(I40
I96
I56
I120
I4
tp4461
a(I8
I0
I60
I32
I6
tp4462
a(I32
I28
I60
I116
I9
tp4463
a(I44
I64
I60
I92
I3
tp4464
a(I24
I68
I52
I92
I7
tp4465
a(I16
I60
I56
I100
I4
tp4466
a(I20
I4
I56
I76
I4
tp4467
a(I20
I80
I60
I124
I5
tp4468
a(I0
I36
I32
I92
I5
tp4469
a(I44
I60
I60
I76
I5
tp4470
a(I44
I68
I60
I108
I3
tp4471
a(I44
I28
I60
I108
I2
tp4472
a(I4
I104
I20
I120
I6
tp4473
a(I20
I60
I56
I92
I3
tp4474
a(I44
I24
I60
I68
I6
tp4475
a(I20
I64
I48
I112
I3
tp4476
a(I28
I24
I60
I96
I4
tp4477
a(I0
I32
I48
I68
I4
tp4478
a(I12
I88
I32
I108
I6
tp4479
a(I40
I108
I56
I124
I4
tp4480
a(I0
I28
I24
I96
I5
tp4481
a(I20
I36
I40
I124
I9
tp4482
a(I44
I4
I60
I104
I5
tp4483
a(I44
I56
I60
I100
I8
tp4484
a(I24
I72
I44
I112
I1
tp4485
a(I0
I24
I52
I68
I9
tp4486
a(I32
I92
I48
I116
I4
tp4487
a(I16
I4
I56
I52
I6
tp4488
a(I40
I92
I56
I124
I4
tp4489
a(I16
I76
I52
I108
I1
tp4490
a(I24
I36
I40
I88
I7
tp4491
a(I4
I84
I28
I124
I1
tp4492
a(I8
I32
I28
I116
I5
tp4493
a(I0
I12
I56
I72
I7
tp4494
a(I24
I8
I52
I96
I6
tp4495
a(I20
I84
I44
I120
I4
tp4496
a(I12
I80
I44
I112
I7
tp4497
a(I16
I52
I44
I92
I3
tp4498
a(I44
I56
I60
I108
I1
tp4499
a(I8
I100
I44
I116
I1
tp4500
a(I40
I52
I56
I104
I6
tp4501
a(I40
I100
I56
I116
I2
tp4502
a(I8
I56
I52
I120
I5
tp4503
a(I12
I24
I32
I108
I3
tp4504
a(I4
I16
I20
I64
I9
tp4505
a(I28
I60
I60
I88
I9
tp4506
a(I0
I76
I40
I104
I0
tp4507
a(I40
I64
I60
I112
I6
tp4508
a(I40
I48
I56
I80
I4
tp4509
a(I36
I60
I56
I124
I9
tp4510
a(I32
I36
I56
I88
I2
tp4511
a(I12
I24
I56
I100
I5
tp4512
a(I44
I32
I60
I100
I7
tp4513
a(I20
I56
I44
I92
I2
tp4514
a(I0
I0
I20
I68
I0
tp4515
a(I44
I100
I60
I116
I5
tp4516
a(I44
I72
I60
I104
I3
tp4517
a(I36
I60
I60
I92
I6
tp4518
a(I44
I32
I60
I100
I7
tp4519
a(I12
I16
I56
I40
I2
tp4520
a(I32
I68
I48
I96
I7
tp4521
a(I20
I84
I60
I100
I0
tp4522
a(I0
I32
I52
I120
I4
tp4523
a(I40
I0
I56
I64
I8
tp4524
a(I28
I100
I48
I116
I8
tp4525
a(I28
I96
I52
I116
I7
tp4526
a(I0
I80
I36
I124
I6
tp4527
a(I24
I96
I52
I120
I0
tp4528
a(I4
I52
I44
I124
I4
tp4529
a(I40
I28
I60
I112
I2
tp4530
a(I40
I32
I56
I80
I3
tp4531
a(I32
I64
I56
I104
I4
tp4532
a(I16
I68
I60
I112
I1
tp4533
a(I32
I0
I56
I92
I5
tp4534
a(I4
I0
I36
I28
I4
tp4535
a(I40
I108
I60
I124
I6
tp4536
a(I12
I36
I28
I84
I3
tp4537
a(I32
I60
I48
I88
I0
tp4538
a(I40
I68
I60
I88
I0
tp4539
a(I12
I92
I52
I124
I9
tp4540
a(I0
I100
I28
I124
I5
tp4541
a(I28
I72
I48
I104
I8
tp4542
a(I40
I28
I56
I116
I7
tp4543
a(I16
I76
I44
I96
I1
tp4544
a(I0
I92
I52
I116
I8
tp4545
a(I20
I4
I36
I116
I1
tp4546
a(I0
I28
I28
I80
I1
tp4547
a(I28
I80
I60
I120
I6
tp4548
a(I8
I88
I40
I120
I4
tp4549
a(I44
I52
I60
I112
I0
tp4550
a(I36
I48
I52
I84
I6
tp4551
a(I40
I12
I56
I108
I2
tp4552
a(I12
I76
I48
I120
I7
tp4553
a(I44
I64
I60
I104
I8
tp4554
a(I20
I72
I44
I92
I9
tp4555
a(I16
I12
I44
I124
I6
tp4556
a(I12
I104
I56
I120
I3
tp4557
a(I20
I56
I60
I124
I1
tp4558
a(I8
I4
I48
I44
I5
tp4559
a(I0
I56
I56
I112
I3
tp4560
a(I28
I48
I44
I100
I0
tp4561
a(I40
I80
I56
I96
I5
tp4562
a(I28
I48
I60
I124
I3
tp4563
a(I16
I80
I48
I116
I7
tp4564
a(I4
I84
I56
I116
I2
tp4565
a(I4
I108
I32
I124
I9
tp4566
a(I40
I52
I56
I92
I8
tp4567
a(I28
I80
I52
I112
I0
tp4568
a(I12
I88
I48
I120
I8
tp4569
a(I28
I48
I48
I72
I3
tp4570
a(I8
I8
I56
I24
I3
tp4571
a(I16
I108
I44
I124
I3
tp4572
a(I0
I68
I52
I88
I4
tp4573
a(I32
I20
I56
I92
I6
tp4574
a(I40
I8
I60
I96
I3
tp4575
a(I36
I92
I52
I108
I0
tp4576
a(I20
I20
I56
I64
I1
tp4577
a(I0
I32
I36
I64
I5
tp4578
a(I16
I108
I32
I124
I4
tp4579
a(I20
I84
I40
I120
I4
tp4580
a(I36
I24
I56
I48
I8
tp4581
a(I12
I44
I40
I88
I4
tp4582
a(I16
I16
I36
I84
I3
tp4583
a(I20
I100
I44
I120
I4
tp4584
a(I4
I0
I44
I52
I8
tp4585
a(I8
I108
I60
I124
I4
tp4586
a(I16
I40
I60
I92
I2
tp4587
a(I44
I36
I60
I96
I0
tp4588
a(I12
I32
I60
I108
I2
tp4589
a(I20
I40
I44
I92
I3
tp4590
a(I44
I108
I60
I124
I4
tp4591
a(I8
I60
I40
I120
I8
tp4592
a(I36
I108
I52
I124
I7
tp4593
a(I8
I20
I56
I60
I7
tp4594
a(I24
I8
I40
I100
I0
tp4595
a(I16
I24
I48
I96
I9
tp4596
a(I40
I20
I60
I52
I3
tp4597
a(I40
I8
I60
I104
I1
tp4598
a(I32
I28
I48
I84
I1
tp4599
a(I24
I48
I60
I112
I1
tp4600
a(I20
I68
I44
I120
I1
tp4601
a(I40
I76
I56
I108
I2
tp4602
a(I12
I0
I56
I108
I1
tp4603
a(I36
I36
I56
I80
I0
tp4604
a(I40
I60
I60
I96
I4
tp4605
a(I32
I88
I52
I120
I7
tp4606
a(I16
I24
I40
I76
I4
tp4607
a(I40
I48
I56
I76
I9
tp4608
a(I4
I76
I32
I96
I7
tp4609
a(I16
I104
I52
I124
I4
tp4610
a(I44
I104
I60
I120
I5
tp4611
a(I24
I72
I56
I108
I3
tp4612
a(I0
I108
I44
I124
I5
tp4613
a(I4
I36
I20
I68
I8
tp4614
a(I44
I12
I60
I56
I9
tp4615
a(I0
I104
I16
I120
I6
tp4616
a(I4
I48
I32
I68
I7
tp4617
a(I32
I60
I52
I96
I8
tp4618
a(I0
I100
I60
I120
I9
tp4619
a(I36
I0
I56
I88
I6
tp4620
a(I24
I12
I44
I40
I9
tp4621
a(I0
I36
I44
I84
I8
tp4622
a(I40
I40
I56
I64
I9
tp4623
a(I8
I24
I40
I96
I2
tp4624
a(I8
I108
I36
I124
I9
tp4625
a(I36
I96
I60
I112
I6
tp4626
a(I36
I96
I52
I124
I9
tp4627
a(I24
I76
I48
I100
I1
tp4628
a(I36
I100
I60
I124
I9
tp4629
a(I12
I24
I52
I60
I3
tp4630
a(I36
I16
I52
I96
I9
tp4631
a(I40
I36
I60
I56
I7
tp4632
a(I12
I84
I28
I100
I0
tp4633
a(I0
I60
I56
I100
I6
tp4634
a(I20
I36
I48
I84
I3
tp4635
a(I12
I24
I40
I80
I3
tp4636
a(I44
I12
I60
I116
I0
tp4637
a(I40
I28
I60
I44
I9
tp4638
a(I8
I36
I24
I96
I1
tp4639
a(I12
I20
I36
I52
I0
tp4640
a(I0
I68
I56
I96
I6
tp4641
a(I24
I48
I60
I112
I1
tp4642
a(I4
I52
I32
I92
I2
tp4643
a(I44
I104
I60
I120
I4
tp4644
a(I12
I52
I60
I80
I9
tp4645
a(I24
I16
I48
I48
I7
tp4646
a(I4
I96
I20
I120
I8
tp4647
a(I28
I44
I60
I72
I9
tp4648
a(I24
I72
I60
I108
I2
tp4649
a(I28
I72
I52
I120
I6
tp4650
a(I4
I64
I32
I120
I0
tp4651
a(I36
I68
I56
I92
I7
tp4652
a(I24
I84
I40
I104
I1
tp4653
a(I32
I48
I60
I88
I4
tp4654
a(I0
I36
I48
I88
I2
tp4655
a(I24
I68
I48
I108
I9
tp4656
a(I24
I8
I56
I28
I0
tp4657
a(I0
I4
I56
I48
I4
tp4658
a(I40
I24
I56
I108
I0
tp4659
a(I8
I20
I24
I120
I0
tp4660
a(I36
I60
I52
I88
I6
tp4661
a(I24
I108
I60
I124
I6
tp4662
a(I4
I24
I48
I108
I1
tp4663
a(I24
I88
I40
I120
I1
tp4664
a(I40
I64
I60
I80
I4
tp4665
a(I36
I68
I56
I92
I1
tp4666
a(I36
I44
I56
I72
I3
tp4667
a(I16
I100
I60
I120
I8
tp4668
a(I12
I40
I60
I72
I6
tp4669
a(I24
I24
I48
I76
I5
tp4670
a(I12
I8
I40
I80
I1
tp4671
a(I12
I96
I44
I116
I7
tp4672
a(I16
I80
I44
I104
I3
tp4673
a(I24
I52
I60
I112
I3
tp4674
a(I0
I36
I56
I60
I2
tp4675
a(I44
I36
I60
I60
I7
tp4676
a(I32
I44
I60
I72
I8
tp4677
a(I20
I56
I60
I80
I8
tp4678
a(I4
I32
I60
I88
I4
tp4679
a(I12
I72
I48
I116
I2
tp4680
a(I44
I92
I60
I112
I8
tp4681
a(I20
I16
I36
I32
I6
tp4682
a(I12
I16
I44
I112
I9
tp4683
a(I28
I68
I60
I112
I3
tp4684
a(I32
I84
I60
I124
I1
tp4685
a(I24
I72
I56
I116
I1
tp4686
a(I32
I88
I48
I120
I4
tp4687
a(I24
I72
I52
I92
I3
tp4688
a(I44
I72
I60
I120
I7
tp4689
a(I8
I108
I52
I124
I8
tp4690
a(I36
I92
I52
I124
I5
tp4691
a(I36
I104
I56
I120
I4
tp4692
a(I28
I64
I60
I88
I4
tp4693
a(I44
I56
I60
I76
I0
tp4694
a(I32
I64
I60
I112
I6
tp4695
a(I28
I96
I56
I112
I0
tp4696
a(I16
I20
I56
I52
I3
tp4697
a(I0
I92
I36
I112
I8
tp4698
a(I0
I12
I16
I52
I9
tp4699
a(I16
I48
I36
I96
I1
tp4700
a(I28
I20
I60
I124
I9
tp4701
a(I0
I32
I24
I96
I2
tp4702
a(I16
I44
I56
I88
I3
tp4703
a(I40
I68
I56
I88
I2
tp4704
a(I28
I72
I60
I88
I7
tp4705
a(I36
I44
I60
I124
I7
tp4706
a(I28
I84
I44
I116
I0
tp4707
a(I16
I76
I40
I124
I6
tp4708
a(I16
I40
I60
I92
I3
tp4709
a(I12
I24
I44
I92
I6
tp4710
a(I32
I96
I60
I116
I2
tp4711
a(I20
I12
I56
I68
I2
tp4712
a(I40
I28
I60
I80
I3
tp4713
a(I28
I16
I52
I72
I0
tp4714
a(I36
I68
I52
I120
I2
tp4715
a(I28
I100
I48
I124
I7
tp4716
a(I40
I44
I60
I104
I0
tp4717
a(I32
I4
I48
I56
I0
tp4718
a(I28
I68
I48
I84
I0
tp4719
a(I16
I28
I44
I84
I0
tp4720
a(I28
I92
I48
I108
I7
tp4721
a(I20
I76
I40
I112
I3
tp4722
a(I28
I60
I44
I96
I9
tp4723
a(I28
I12
I48
I56
I2
tp4724
a(I28
I24
I60
I116
I5
tp4725
a(I36
I24
I60
I88
I8
tp4726
a(I32
I96
I48
I120
I5
tp4727
a(I28
I64
I48
I100
I1
tp4728
a(I20
I16
I48
I104
I8
tp4729
a(I32
I64
I56
I108
I4
tp4730
a(I16
I64
I36
I116
I0
tp4731
a(I4
I108
I48
I124
I4
tp4732
a(I36
I96
I52
I112
I2
tp4733
a(I40
I40
I60
I96
I9
tp4734
a(I4
I64
I40
I88
I0
tp4735
a(I8
I72
I60
I124
I4
tp4736
a(I16
I72
I48
I96
I6
tp4737
a(I28
I4
I44
I20
I9
tp4738
a(I8
I16
I48
I104
I5
tp4739
a(I28
I100
I52
I116
I5
tp4740
a(I12
I80
I44
I112
I6
tp4741
a(I4
I4
I32
I112
I9
tp4742
a(I20
I84
I56
I100
I5
tp4743
a(I28
I100
I48
I120
I1
tp4744
a(I12
I96
I56
I120
I5
tp4745
a(I28
I88
I44
I104
I2
tp4746
a(I40
I76
I60
I104
I6
tp4747
a(I36
I68
I52
I116
I7
tp4748
a(I0
I64
I32
I88
I9
tp4749
a(I20
I76
I52
I96
I5
tp4750
a(I44
I16
I60
I80
I5
tp4751
a(I16
I84
I36
I112
I7
tp4752
a(I20
I104
I44
I124
I4
tp4753
a(I40
I60
I60
I124
I9
tp4754
a(I12
I84
I48
I124
I4
tp4755
a(I12
I56
I48
I72
I4
tp4756
a(I4
I52
I28
I92
I4
tp4757
a(I24
I44
I56
I112
I1
tp4758
a(I24
I16
I52
I84
I7
tp4759
a(I0
I32
I16
I104
I0
tp4760
a(I32
I96
I48
I116
I2
tp4761
a(I32
I104
I48
I124
I2
tp4762
a(I20
I100
I60
I116
I8
tp4763
a(I28
I20
I48
I60
I7
tp4764
a(I4
I108
I44
I124
I9
tp4765
a(I12
I80
I48
I100
I9
tp4766
a(I20
I40
I40
I96
I9
tp4767
a(I24
I92
I48
I108
I2
tp4768
a(I8
I108
I24
I124
I9
tp4769
a(I16
I32
I40
I76
I7
tp4770
a(I36
I104
I60
I120
I4
tp4771
a(I32
I96
I60
I124
I7
tp4772
a(I28
I56
I52
I108
I7
tp4773
a(I28
I80
I60
I112
I8
tp4774
a(I44
I16
I60
I76
I5
tp4775
a(I32
I76
I60
I108
I0
tp4776
a(I16
I84
I52
I120
I6
tp4777
a(I12
I48
I60
I116
I9
tp4778
a(I32
I4
I52
I116
I2
tp4779
a(I8
I96
I24
I124
I8
tp4780
a(I0
I64
I32
I100
I2
tp4781
a(I28
I4
I44
I36
I8
tp4782
a(I8
I76
I40
I116
I0
tp4783
a(I28
I60
I44
I124
I8
tp4784
a(I20
I0
I48
I84
I8
tp4785
a(I36
I100
I52
I124
I4
tp4786
a(I16
I8
I60
I64
I8
tp4787
a(I8
I12
I40
I68
I1
tp4788
a(I4
I32
I40
I112
I2
tp4789
a(I28
I44
I44
I112
I4
tp4790
a(I28
I60
I48
I80
I2
tp4791
a(I8
I44
I60
I92
I1
tp4792
a(I0
I24
I20
I64
I4
tp4793
a(I20
I72
I52
I104
I3
tp4794
a(I32
I72
I48
I116
I7
tp4795
a(I24
I56
I48
I116
I7
tp4796
a(I16
I24
I32
I96
I1
tp4797
a(I36
I16
I56
I88
I8
tp4798
a(I24
I32
I48
I52
I9
tp4799
a(I8
I84
I60
I120
I4
tp4800
a(I28
I108
I60
I124
I2
tp4801
a(I8
I8
I36
I108
I9
tp4802
a(I36
I96
I52
I116
I5
tp4803
a(I20
I28
I60
I60
I5
tp4804
a(I28
I52
I52
I100
I9
tp4805
a(I16
I24
I60
I100
I3
tp4806
a(I40
I76
I60
I112
I6
tp4807
a(I28
I56
I48
I88
I2
tp4808
a(I44
I48
I60
I116
I8
tp4809
a(I20
I64
I60
I108
I9
tp4810
a(I32
I32
I56
I68
I3
tp4811
a(I28
I48
I56
I124
I1
tp4812
a(I28
I72
I52
I116
I8
tp4813
a(I8
I60
I48
I84
I5
tp4814
a(I44
I56
I60
I120
I0
tp4815
a(I16
I88
I52
I112
I6
tp4816
a(I24
I68
I60
I88
I1
tp4817
a(I44
I0
I60
I108
I3
tp4818
a(I24
I52
I40
I92
I7
tp4819
a(I24
I84
I52
I116
I0
tp4820
a(I36
I40
I52
I88
I3
tp4821
a(I20
I56
I40
I84
I8
tp4822
a(I16
I56
I52
I104
I3
tp4823
a(I0
I28
I24
I112
I4
tp4824
a(I44
I8
I60
I96
I9
tp4825
a(I16
I16
I48
I84
I1
tp4826
a(I40
I68
I60
I108
I2
tp4827
a(I44
I48
I60
I88
I2
tp4828
a(I12
I44
I48
I120
I7
tp4829
a(I8
I100
I44
I116
I3
tp4830
a(I4
I0
I20
I60
I0
tp4831
a(I16
I84
I40
I108
I3
tp4832
a(I44
I52
I60
I88
I0
tp4833
a(I28
I88
I48
I120
I4
tp4834
a(I16
I64
I40
I96
I5
tp4835
a(I12
I84
I36
I108
I3
tp4836
a(I28
I44
I48
I80
I2
tp4837
a(I8
I40
I36
I112
I5
tp4838
a(I8
I8
I44
I92
I1
tp4839
a(I0
I88
I32
I112
I9
tp4840
a(I40
I8
I60
I116
I2
tp4841
a(I44
I24
I60
I108
I6
tp4842
a(I36
I88
I52
I124
I6
tp4843
a(I28
I28
I56
I64
I7
tp4844
a(I36
I76
I60
I116
I9
tp4845
a(I24
I12
I56
I88
I0
tp4846
a(I8
I16
I56
I116
I1
tp4847
a(I16
I72
I56
I88
I8
tp4848
a(I24
I68
I40
I92
I9
tp4849
a(I8
I16
I36
I64
I0
tp4850
a(I32
I20
I56
I84
I7
tp4851
a(I28
I16
I56
I36
I2
tp4852
a(I40
I12
I60
I44
I1
tp4853
a(I20
I68
I60
I84
I8
tp4854
a(I36
I100
I56
I120
I5
tp4855
a(I40
I88
I56
I104
I2
tp4856
a(I20
I88
I48
I108
I2
tp4857
a(I32
I32
I56
I108
I6
tp4858
a(I16
I36
I60
I104
I2
tp4859
a(I40
I40
I56
I104
I3
tp4860
a(I4
I76
I52
I112
I0
tp4861
a(I12
I108
I40
I124
I2
tp4862
a(I4
I44
I28
I104
I2
tp4863
a(I20
I56
I44
I96
I1
tp4864
a(I0
I60
I56
I88
I0
tp4865
a(I0
I40
I28
I124
I6
tp4866
a(I36
I80
I56
I108
I5
tp4867
a(I24
I44
I52
I116
I3
tp4868
a(I12
I28
I32
I100
I2
tp4869
a(I28
I96
I52
I120
I8
tp4870
a(I32
I32
I48
I72
I0
tp4871
a(I16
I60
I40
I88
I0
tp4872
a(I28
I48
I44
I92
I8
tp4873
a(I32
I44
I48
I124
I5
tp4874
a(I44
I108
I60
I124
I6
tp4875
a(I16
I60
I52
I108
I3
tp4876
a(I4
I56
I48
I84
I5
tp4877
a(I4
I100
I44
I116
I8
tp4878
a(I40
I20
I56
I92
I0
tp4879
a(I36
I0
I60
I64
I7
tp4880
a(I28
I60
I60
I112
I2
tp4881
a(I4
I24
I20
I96
I4
tp4882
a(I40
I84
I56
I112
I9
tp4883
a(I8
I56
I56
I76
I0
tp4884
a(I44
I108
I60
I124
I8
tp4885
a(I20
I36
I60
I84
I7
tp4886
a(I44
I60
I60
I84
I4
tp4887
a(I12
I12
I28
I56
I3
tp4888
a(I40
I24
I56
I124
I6
tp4889
a(I40
I76
I56
I108
I4
tp4890
a(I32
I56
I60
I112
I2
tp4891
a(I44
I48
I60
I64
I3
tp4892
a(I40
I36
I60
I68
I7
tp4893
a(I8
I36
I28
I76
I2
tp4894
a(I16
I44
I32
I120
I1
tp4895
a(I32
I88
I52
I116
I9
tp4896
a(I28
I60
I60
I124
I6
tp4897
a(I40
I20
I56
I100
I2
tp4898
a(I36
I84
I60
I116
I8
tp4899
a(I20
I60
I60
I124
I1
tp4900
a(I32
I12
I48
I96
I0
tp4901
a(I28
I76
I48
I96
I0
tp4902
a(I32
I48
I52
I68
I6
tp4903
a(I40
I100
I56
I116
I9
tp4904
a(I24
I48
I56
I92
I8
tp4905
a(I28
I60
I52
I88
I6
tp4906
a(I40
I92
I60
I108
I3
tp4907
a(I28
I4
I48
I68
I1
tp4908
a(I32
I48
I60
I96
I5
tp4909
a(I0
I76
I24
I108
I5
tp4910
a(I0
I0
I36
I76
I4
tp4911
a(I44
I4
I60
I40
I6
tp4912
a(I4
I104
I52
I124
I0
tp4913
a(I12
I92
I28
I108
I7
tp4914
a(I36
I60
I60
I116
I5
tp4915
a(I40
I8
I60
I124
I2
tp4916
a(I28
I44
I52
I116
I1
tp4917
a(I24
I64
I60
I108
I5
tp4918
a(I28
I80
I52
I104
I9
tp4919
a(I20
I88
I44
I108
I2
tp4920
a(I20
I4
I56
I124
I5
tp4921
a(I32
I68
I48
I92
I3
tp4922
a(I20
I100
I36
I120
I2
tp4923
a(I28
I28
I52
I56
I8
tp4924
a(I36
I20
I52
I120
I4
tp4925
a(I12
I72
I36
I116
I9
tp4926
a(I40
I88
I60
I108
I9
tp4927
a(I32
I60
I48
I76
I9
tp4928
a(I0
I56
I32
I120
I3
tp4929
a(I12
I80
I56
I100
I4
tp4930
a(I40
I80
I56
I120
I5
tp4931
a(I20
I88
I52
I104
I1
tp4932
a(I0
I56
I40
I116
I4
tp4933
a(I4
I76
I56
I124
I9
tp4934
a(I16
I24
I32
I84
I5
tp4935
a(I36
I0
I52
I36
I6
tp4936
a(I4
I20
I52
I104
I7
tp4937
a(I28
I64
I44
I96
I4
tp4938
a(I44
I48
I60
I112
I3
tp4939
a(I20
I88
I40
I116
I0
tp4940
a(I16
I84
I36
I112
I7
tp4941
a(I24
I12
I44
I96
I4
tp4942
a(I4
I84
I44
I108
I5
tp4943
a(I12
I92
I60
I112
I8
tp4944
a(I16
I24
I48
I60
I8
tp4945
a(I44
I92
I60
I120
I2
tp4946
a(I20
I100
I40
I120
I3
tp4947
a(I4
I84
I52
I120
I5
tp4948
a(I16
I76
I44
I92
I0
tp4949
a(I16
I100
I44
I116
I3
tp4950
a(I24
I80
I48
I120
I4
tp4951
a(I44
I0
I60
I120
I9
tp4952
a(I4
I60
I48
I112
I1
tp4953
a(I16
I44
I40
I124
I9
tp4954
a(I0
I52
I56
I124
I6
tp4955
a(I40
I32
I56
I52
I1
tp4956
a(I8
I0
I32
I44
I2
tp4957
a(I16
I36
I40
I112
I0
tp4958
a(I44
I64
I60
I112
I7
tp4959
a(I40
I72
I60
I108
I2
tp4960
a(I44
I40
I60
I72
I2
tp4961
a(I36
I64
I52
I116
I0
tp4962
a(I12
I100
I44
I124
I5
tp4963
a(I40
I100
I56
I124
I4
tp4964
a(I12
I92
I44
I124
I2
tp4965
a(I28
I8
I48
I80
I6
tp4966
a(I4
I32
I24
I76
I9
tp4967
a(I36
I0
I56
I64
I1
tp4968
a(I28
I24
I44
I44
I8
tp4969
a(I28
I68
I52
I100
I7
tp4970
a(I40
I84
I56
I108
I2
tp4971
a(I36
I80
I60
I104
I0
tp4972
a(I40
I96
I56
I124
I1
tp4973
a(I40
I108
I56
I124
I4
tp4974
a(I20
I52
I60
I112
I2
tp4975
a(I32
I56
I52
I72
I5
tp4976
a(I36
I52
I52
I124
I7
tp4977
a(I40
I8
I60
I48
I0
tp4978
a(I16
I100
I60
I124
I0
tp4979
a(I28
I104
I60
I120
I6
tp4980
a(I8
I24
I48
I112
I4
tp4981
a(I36
I0
I60
I100
I3
tp4982
a(I28
I104
I44
I124
I9
tp4983
a(I28
I36
I56
I64
I3
tp4984
a(I32
I100
I60
I124
I9
tp4985
a(I32
I92
I52
I116
I2
tp4986
a(I0
I44
I52
I124
I7
tp4987
a(I12
I48
I60
I96
I1
tp4988
a(I20
I44
I60
I112
I6
tp4989
a(I8
I28
I32
I92
I2
tp4990
a(I24
I48
I60
I72
I9
tp4991
a(I36
I88
I60
I116
I5
tp4992
a(I40
I84
I60
I108
I3
tp4993
a(I4
I100
I28
I120
I0
tp4994
a(I32
I24
I48
I52
I3
tp4995
a(I4
I40
I52
I68
I3
tp4996
a(I16
I52
I60
I92
I2
tp4997
a(I8
I76
I40
I100
I7
tp4998
a(I8
I0
I56
I64
I7
tp4999
a(I40
I64
I60
I84
I3
tp5000
a.