(lp0
(I32
I12
I56
I88
I1
tp1
a(I8
I96
I36
I112
I5
tp2
a(I36
I44
I60
I120
I1
tp3
a(I16
I60
I60
I100
I1
tp4
a(I0
I84
I28
I124
I6
tp5
a(I40
I32
I56
I112
I6
tp6
a(I0
I100
I36
I120
I6
tp7
a(I4
I44
I24
I68
I9
tp8
a(I24
I72
I48
I88
I7
tp9
a(I40
I24
I56
I84
I9
tp10
a(I16
I56
I36
I116
I9
tp11
a(I0
I48
I28
I92
I2
tp12
a(I20
I64
I40
I88
I3
tp13
a(I32
I84
I52
I104
I8
tp14
a(I16
I48
I52
I72
I8
tp15
a(I40
I88
I56
I116
I3
tp16
a(I20
I56
I60
I84
I6
tp17
a(I8
I48
I24
I120
I8
tp18
a(I20
I84
I44
I120
I1
tp19
a(I20
I84
I56
I124
I9
tp20
a(I0
I88
I56
I104
I3
tp21
a(I20
I52
I36
I92
I6
tp22
a(I28
I12
I48
I104
I4
tp23
a(I32
I88
I52
I116
I2
tp24
a(I32
I80
I52
I112
I1
tp25
a(I20
I16
I40
I104
I9
tp26
a(I8
I68
I40
I112
I4
tp27
a(I24
I100
I48
I120
I7
tp28
a(I8
I92
I24
I116
I2
tp29
a(I40
I84
I60
I116
I8
tp30
a(I8
I48
I36
I124
I1
tp31
a(I44
I96
I60
I116
I6
tp32
a(I36
I32
I56
I120
I1
tp33
a(I0
I12
I60
I92
I6
tp34
a(I20
I108
I36
I124
I3
tp35
a(I4
I32
I48
I56
I7
tp36
a(I28
I80
I60
I104
I9
tp37
a(I0
I104
I44
I120
I4
tp38
a(I40
I40
I60
I72
I5
tp39
a(I0
I52
I20
I88
I2
tp40
a(I44
I68
I60
I84
I4
tp41
a(I24
I88
I60
I112
I2
tp42
a(I24
I40
I48
I64
I2
tp43
a(I32
I36
I60
I68
I3
tp44
a(I16
I0
I48
I80
I9
tp45
a(I16
I4
I32
I20
I4
tp46
a(I36
I40
I60
I100
I8
tp47
a(I44
I60
I60
I124
I3
tp48
a(I4
I92
I32
I120
I2
tp49
a(I28
I64
I60
I120
I8
tp50
a(I0
I60
I20
I88
I3
tp51
a(I24
I48
I40
I84
I7
tp52
a(I12
I28
I60
I100
I0
tp53
a(I0
I60
I36
I112
I8
tp54
a(I12
I40
I44
I84
I4
tp55
a(I24
I56
I52
I96
I9
tp56
a(I28
I0
I48
I96
I2
tp57
a(I16
I44
I56
I104
I1
tp58
a(I4
I104
I52
I124
I2
tp59
a(I4
I96
I40
I112
I5
tp60
a(I32
I92
I60
I120
I1
tp61
a(I40
I80
I60
I104
I2
tp62
a(I24
I108
I40
I124
I6
tp63
a(I44
I24
I60
I96
I7
tp64
a(I40
I44
I60
I60
I4
tp65
a(I16
I20
I36
I40
I7
tp66
a(I24
I40
I48
I124
I1
tp67
a(I28
I52
I56
I68
I3
tp68
a(I44
I84
I60
I120
I8
tp69
a(I16
I72
I60
I112
I5
tp70
a(I28
I68
I56
I104
I1
tp71
a(I0
I48
I36
I72
I9
tp72
a(I20
I72
I48
I120
I8
tp73
a(I20
I72
I36
I88
I8
tp74
a(I12
I24
I32
I72
I7
tp75
a(I24
I44
I52
I72
I8
tp76
a(I20
I108
I44
I124
I4
tp77
a(I44
I96
I60
I116
I5
tp78
a(I36
I40
I56
I68
I1
tp79
a(I24
I60
I40
I84
I4
tp80
a(I28
I92
I60
I108
I5
tp81
a(I40
I0
I56
I52
I8
tp82
a(I28
I96
I48
I116
I2
tp83
a(I20
I80
I36
I112
I4
tp84
a(I16
I16
I40
I116
I1
tp85
a(I36
I36
I52
I60
I7
tp86
a(I8
I32
I52
I104
I0
tp87
a(I4
I88
I20
I120
I6
tp88
a(I0
I84
I40
I104
I3
tp89
a(I28
I20
I44
I44
I6
tp90
a(I16
I4
I32
I72
I9
tp91
a(I32
I64
I60
I92
I0
tp92
a(I8
I0
I56
I112
I2
tp93
a(I8
I4
I60
I84
I5
tp94
a(I12
I108
I56
I124
I2
tp95
a(I24
I32
I52
I68
I1
tp96
a(I8
I64
I60
I108
I1
tp97
a(I24
I92
I44
I112
I9
tp98
a(I12
I16
I48
I60
I3
tp99
a(I16
I64
I48
I104
I1
tp100
a(I12
I28
I48
I56
I7
tp101
a(I44
I72
I60
I112
I0
tp102
a(I28
I52
I52
I112
I1
tp103
a(I12
I84
I36
I116
I8
tp104
a(I44
I24
I60
I56
I0
tp105
a(I12
I32
I28
I60
I2
tp106
a(I32
I76
I52
I92
I2
tp107
a(I28
I92
I52
I124
I0
tp108
a(I24
I4
I48
I60
I3
tp109
a(I44
I8
I60
I40
I3
tp110
a(I8
I0
I60
I96
I6
tp111
a(I4
I32
I52
I116
I2
tp112
a(I12
I72
I32
I96
I9
tp113
a(I40
I104
I60
I124
I0
tp114
a(I8
I24
I32
I104
I1
tp115
a(I16
I100
I40
I124
I5
tp116
a(I44
I16
I60
I124
I8
tp117
a(I20
I44
I44
I96
I8
tp118
a(I36
I8
I52
I100
I4
tp119
a(I20
I92
I60
I116
I8
tp120
a(I44
I60
I60
I100
I5
tp121
a(I16
I72
I36
I116
I8
tp122
a(I12
I40
I32
I72
I8
tp123
a(I4
I16
I32
I56
I2
tp124
a(I28
I88
I52
I124
I4
tp125
a(I20
I76
I56
I104
I3
tp126
a(I16
I8
I48
I36
I4
tp127
a(I24
I32
I56
I84
I0
tp128
a(I44
I68
I60
I100
I5
tp129
a(I36
I24
I56
I40
I1
tp130
a(I12
I88
I56
I112
I1
tp131
a(I16
I60
I40
I124
I7
tp132
a(I36
I4
I56
I48
I0
tp133
a(I0
I24
I60
I80
I3
tp134
a(I32
I52
I60
I116
I7
tp135
a(I20
I16
I44
I56
I0
tp136
a(I4
I16
I28
I64
I1
tp137
a(I28
I108
I52
I124
I3
tp138
a(I20
I72
I40
I88
I9
tp139
a(I28
I104
I56
I120
I7
tp140
a(I44
I16
I60
I108
I7
tp141
a(I44
I72
I60
I116
I5
tp142
a(I4
I84
I48
I120
I1
tp143
a(I8
I68
I52
I96
I5
tp144
a(I36
I60
I60
I88
I4
tp145
a(I12
I40
I36
I84
I9
tp146
a(I0
I44
I44
I96
I9
tp147
a(I12
I4
I40
I76
I3
tp148
a(I32
I32
I60
I116
I5
tp149
a(I40
I36
I60
I52
I8
tp150
a(I40
I8
I60
I52
I9
tp151
a(I20
I64
I48
I108
I9
tp152
a(I4
I0
I20
I124
I9
tp153
a(I44
I36
I60
I84
I0
tp154
a(I44
I48
I60
I112
I4
tp155
a(I32
I24
I52
I48
I7
tp156
a(I12
I36
I40
I120
I2
tp157
a(I4
I8
I24
I68
I1
tp158
a(I40
I32
I60
I92
I7
tp159
a(I12
I16
I28
I84
I4
tp160
a(I24
I44
I44
I84
I1
tp161
a(I44
I64
I60
I116
I9
tp162
a(I4
I4
I56
I40
I9
tp163
a(I40
I92
I60
I112
I6
tp164
a(I24
I12
I52
I88
I8
tp165
a(I16
I44
I32
I80
I7
tp166
a(I40
I36
I60
I92
I0
tp167
a(I24
I0
I56
I124
I3
tp168
a(I16
I60
I40
I96
I9
tp169
a(I8
I24
I28
I76
I2
tp170
a(I0
I72
I36
I96
I4
tp171
a(I4
I96
I32
I112
I3
tp172
a(I36
I64
I56
I100
I4
tp173
a(I16
I104
I40
I120
I1
tp174
a(I28
I72
I56
I124
I6
tp175
a(I36
I12
I56
I84
I4
tp176
a(I40
I32
I60
I68
I5
tp177
a(I40
I64
I56
I88
I5
tp178
a(I40
I96
I60
I112
I2
tp179
a(I8
I16
I36
I68
I9
tp180
a(I12
I16
I60
I60
I3
tp181
a(I36
I20
I52
I64
I4
tp182
a(I24
I48
I60
I100
I8
tp183
a(I4
I72
I28
I120
I5
tp184
a(I12
I4
I36
I68
I8
tp185
a(I12
I68
I56
I104
I9
tp186
a(I40
I52
I60
I68
I2
tp187
a(I40
I40
I56
I108
I3
tp188
a(I20
I32
I48
I124
I5
tp189
a(I28
I56
I60
I112
I7
tp190
a(I16
I0
I56
I100
I5
tp191
a(I0
I52
I16
I84
I0
tp192
a(I32
I8
I60
I84
I2
tp193
a(I40
I32
I60
I76
I4
tp194
a(I8
I4
I24
I96
I2
tp195
a(I44
I80
I60
I96
I2
tp196
a(I16
I56
I44
I116
I2
tp197
a(I28
I56
I60
I92
I0
tp198
a(I4
I4
I56
I124
I9
tp199
a(I40
I12
I60
I104
I5
tp200
a(I44
I24
I60
I52
I1
tp201
a(I4
I88
I20
I116
I9
tp202
a(I36
I56
I52
I76
I9
tp203
a(I4
I72
I48
I100
I1
tp204
a(I16
I44
I44
I64
I1
tp205
a(I44
I32
I60
I100
I7
tp206
a(I8
I96
I44
I124
I1
tp207
a(I36
I100
I56
I120
I0
tp208
a(I4
I20
I28
I36
I9
tp209
a(I44
I96
I60
I116
I0
tp210
a(I32
I100
I48
I116
I0
tp211
a(I0
I64
I28
I80
I2
tp212
a(I44
I48
I60
I68
I2
tp213
a(I0
I108
I48
I124
I0
tp214
a(I4
I28
I32
I100
I1
tp215
a(I12
I104
I56
I120
I2
tp216
a(I16
I76
I52
I120
I2
tp217
a(I20
I100
I60
I124
I6
tp218
a(I4
I108
I24
I124
I1
tp219
a(I32
I12
I52
I40
I4
tp220
a(I24
I92
I52
I108
I6
tp221
a(I40
I48
I60
I72
I9
tp222
a(I0
I52
I52
I108
I5
tp223
a(I32
I84
I52
I120
I7
tp224
a(I12
I40
I40
I104
I9
tp225
a(I12
I0
I44
I80
I4
tp226
a(I0
I36
I24
I92
I5
tp227
a(I36
I84
I56
I104
I8
tp228
a(I40
I92
I56
I124
I9
tp229
a(I4
I76
I36
I108
I2
tp230
a(I36
I92
I52
I116
I4
tp231
a(I44
I84
I60
I100
I6
tp232
a(I36
I48
I52
I76
I8
tp233
a(I40
I24
I60
I88
I4
tp234
a(I44
I0
I60
I108
I0
tp235
a(I4
I56
I44
I88
I7
tp236
a(I0
I68
I24
I100
I3
tp237
a(I24
I12
I52
I96
I1
tp238
a(I24
I100
I44
I124
I8
tp239
a(I28
I12
I56
I104
I9
tp240
a(I16
I48
I48
I124
I8
tp241
a(I0
I88
I32
I104
I0
tp242
a(I12
I104
I48
I120
I3
tp243
a(I44
I72
I60
I116
I2
tp244
a(I8
I80
I56
I116
I9
tp245
a(I0
I76
I24
I96
I2
tp246
a(I44
I0
I60
I100
I2
tp247
a(I24
I36
I48
I76
I2
tp248
a(I44
I8
I60
I24
I9
tp249
a(I0
I72
I32
I120
I5
tp250
a(I28
I76
I52
I116
I5
tp251
a(I12
I76
I56
I112
I0
tp252
a(I8
I64
I48
I120
I7
tp253
a(I28
I32
I52
I76
I5
tp254
a(I28
I88
I52
I124
I3
tp255
a(I32
I48
I56
I72
I5
tp256
a(I24
I60
I44
I120
I3
tp257
a(I4
I104
I56
I124
I7
tp258
a(I28
I60
I48
I124
I2
tp259
a(I32
I84
I60
I112
I9
tp260
a(I24
I52
I40
I108
I7
tp261
a(I40
I96
I56
I124
I8
tp262
a(I8
I12
I52
I56
I2
tp263
a(I20
I80
I36
I108
I2
tp264
a(I32
I40
I52
I76
I1
tp265
a(I24
I44
I40
I124
I1
tp266
a(I12
I44
I32
I116
I3
tp267
a(I20
I20
I60
I108
I1
tp268
a(I16
I24
I48
I92
I3
tp269
a(I16
I80
I52
I124
I7
tp270
a(I12
I44
I48
I60
I1
tp271
a(I28
I24
I56
I108
I8
tp272
a(I40
I92
I56
I108
I1
tp273
a(I0
I72
I56
I124
I7
tp274
a(I40
I4
I60
I20
I9
tp275
a(I44
I100
I60
I116
I9
tp276
a(I12
I56
I44
I124
I9
tp277
a(I16
I100
I36
I120
I5
tp278
a(I36
I84
I52
I120
I9
tp279
a(I12
I108
I60
I124
I2
tp280
a(I4
I96
I32
I124
I4
tp281
a(I32
I52
I56
I68
I7
tp282
a(I12
I44
I44
I76
I5
tp283
a(I20
I28
I40
I124
I3
tp284
a(I32
I104
I52
I124
I6
tp285
a(I44
I76
I60
I112
I8
tp286
a(I28
I104
I56
I124
I9
tp287
a(I44
I28
I60
I108
I1
tp288
a(I16
I24
I36
I60
I4
tp289
a(I36
I16
I60
I108
I2
tp290
a(I36
I52
I56
I112
I8
tp291
a(I4
I68
I20
I108
I8
tp292
a(I0
I0
I16
I124
I8
tp293
a(I36
I60
I60
I112
I0
tp294
a(I16
I40
I52
I60
I1
tp295
a(I20
I4
I60
I20
I6
tp296
a(I20
I12
I52
I48
I2
tp297
a(I40
I60
I60
I112
I9
tp298
a(I12
I108
I48
I124
I9
tp299
a(I12
I36
I36
I104
I0
tp300
a(I0
I40
I40
I108
I7
tp301
a(I32
I84
I56
I100
I4
tp302
a(I44
I84
I60
I100
I2
tp303
a(I4
I108
I44
I124
I4
tp304
a(I36
I28
I56
I116
I7
tp305
a(I24
I96
I40
I120
I4
tp306
a(I32
I4
I56
I84
I0
tp307
a(I4
I80
I56
I120
I4
tp308
a(I28
I72
I52
I96
I7
tp309
a(I20
I88
I56
I112
I1
tp310
a(I4
I96
I52
I120
I4
tp311
a(I4
I36
I24
I116
I2
tp312
a(I40
I20
I56
I60
I9
tp313
a(I40
I84
I60
I120
I0
tp314
a(I44
I48
I60
I72
I9
tp315
a(I40
I4
I60
I28
I4
tp316
a(I24
I16
I60
I116
I2
tp317
a(I16
I108
I40
I124
I6
tp318
a(I0
I80
I36
I104
I9
tp319
a(I16
I84
I40
I120
I2
tp320
a(I12
I20
I52
I68
I6
tp321
a(I36
I4
I56
I120
I8
tp322
a(I24
I68
I52
I96
I1
tp323
a(I44
I88
I60
I108
I1
tp324
a(I44
I40
I60
I104
I1
tp325
a(I32
I28
I52
I68
I3
tp326
a(I12
I48
I36
I88
I4
tp327
a(I40
I24
I56
I104
I8
tp328
a(I8
I36
I32
I68
I1
tp329
a(I20
I52
I40
I80
I3
tp330
a(I8
I56
I56
I72
I6
tp331
a(I44
I4
I60
I40
I9
tp332
a(I44
I52
I60
I120
I3
tp333
a(I36
I20
I52
I92
I8
tp334
a(I28
I16
I60
I116
I1
tp335
a(I24
I88
I40
I116
I2
tp336
a(I12
I32
I60
I64
I0
tp337
a(I12
I76
I36
I92
I5
tp338
a(I8
I52
I60
I100
I0
tp339
a(I4
I80
I36
I112
I9
tp340
a(I12
I72
I44
I100
I8
tp341
a(I16
I56
I40
I104
I4
tp342
a(I8
I24
I48
I76
I9
tp343
a(I20
I44
I48
I104
I2
tp344
a(I44
I16
I60
I100
I9
tp345
a(I8
I64
I52
I108
I0
tp346
a(I28
I88
I52
I124
I2
tp347
a(I4
I28
I44
I52
I4
tp348
a(I12
I20
I32
I100
I3
tp349
a(I12
I44
I36
I104
I8
tp350
a(I44
I92
I60
I124
I4
tp351
a(I12
I80
I56
I120
I9
tp352
a(I40
I36
I60
I100
I3
tp353
a(I36
I8
I52
I92
I0
tp354
a(I36
I88
I60
I116
I3
tp355
a(I40
I84
I60
I112
I0
tp356
a(I4
I36
I36
I116
I8
tp357
a(I0
I108
I52
I124
I1
tp358
a(I44
I84
I60
I124
I0
tp359
a(I12
I32
I44
I72
I6
tp360
a(I36
I40
I52
I80
I3
tp361
a(I44
I12
I60
I48
I3
tp362
a(I24
I72
I60
I100
I8
tp363
a(I36
I12
I60
I92
I7
tp364
a(I8
I108
I60
I124
I3
tp365
a(I24
I4
I52
I92
I2
tp366
a(I40
I84
I56
I120
I9
tp367
a(I0
I88
I48
I116
I6
tp368
a(I28
I68
I48
I112
I1
tp369
a(I44
I36
I60
I64
I3
tp370
a(I32
I44
I56
I60
I3
tp371
a(I0
I40
I44
I96
I4
tp372
a(I44
I16
I60
I108
I7
tp373
a(I0
I40
I60
I80
I3
tp374
a(I16
I84
I40
I120
I8
tp375
a(I0
I44
I36
I124
I8
tp376
a(I32
I12
I60
I88
I8
tp377
a(I4
I92
I32
I116
I1
tp378
a(I20
I36
I52
I68
I3
tp379
a(I20
I20
I52
I108
I4
tp380
a(I8
I76
I28
I108
I4
tp381
a(I44
I96
I60
I120
I6
tp382
a(I8
I88
I48
I108
I4
tp383
a(I36
I40
I60
I88
I2
tp384
a(I40
I68
I56
I100
I1
tp385
a(I4
I28
I60
I104
I0
tp386
a(I36
I24
I52
I44
I0
tp387
a(I28
I16
I44
I76
I9
tp388
a(I32
I16
I56
I56
I1
tp389
a(I8
I40
I40
I60
I5
tp390
a(I40
I48
I56
I72
I0
tp391
a(I4
I80
I32
I104
I7
tp392
a(I16
I68
I48
I92
I6
tp393
a(I28
I52
I60
I76
I3
tp394
a(I24
I36
I40
I84
I7
tp395
a(I32
I52
I60
I112
I2
tp396
a(I8
I60
I56
I108
I2
tp397
a(I0
I72
I48
I116
I1
tp398
a(I20
I24
I44
I88
I9
tp399
a(I0
I44
I24
I96
I0
tp400
a(I0
I4
I48
I64
I0
tp401
a(I28
I100
I44
I120
I1
tp402
a(I28
I8
I48
I40
I3
tp403
a(I20
I68
I48
I100
I5
tp404
a(I16
I8
I52
I60
I9
tp405
a(I44
I60
I60
I108
I3
tp406
a(I8
I72
I40
I108
I4
tp407
a(I4
I0
I52
I52
I1
tp408
a(I8
I60
I40
I104
I8
tp409
a(I40
I24
I60
I40
I3
tp410
a(I8
I24
I24
I48
I9
tp411
a(I16
I80
I56
I108
I3
tp412
a(I36
I8
I56
I96
I7
tp413
a(I4
I12
I48
I56
I4
tp414
a(I8
I64
I56
I108
I0
tp415
a(I36
I76
I56
I116
I1
tp416
a(I40
I88
I60
I112
I5
tp417
a(I32
I20
I60
I44
I3
tp418
a(I12
I56
I40
I88
I2
tp419
a(I20
I4
I48
I116
I2
tp420
a(I24
I52
I40
I84
I7
tp421
a(I40
I80
I60
I124
I5
tp422
a(I36
I24
I60
I96
I8
tp423
a(I36
I28
I52
I120
I8
tp424
a(I16
I64
I32
I108
I7
tp425
a(I40
I20
I60
I84
I2
tp426
a(I16
I32
I56
I112
I4
tp427
a(I24
I108
I40
I124
I1
tp428
a(I12
I20
I56
I44
I8
tp429
a(I16
I64
I48
I84
I6
tp430
a(I28
I60
I56
I84
I9
tp431
a(I44
I92
I60
I116
I2
tp432
a(I44
I40
I60
I80
I2
tp433
a(I12
I12
I40
I88
I2
tp434
a(I44
I52
I60
I88
I5
tp435
a(I44
I4
I60
I56
I8
tp436
a(I32
I84
I52
I108
I4
tp437
a(I4
I32
I52
I52
I1
tp438
a(I4
I8
I32
I112
I5
tp439
a(I40
I100
I60
I120
I9
tp440
a(I36
I56
I56
I84
I7
tp441
a(I24
I48
I56
I72
I7
tp442
a(I16
I92
I48
I108
I7
tp443
a(I0
I28
I24
I116
I6
tp444
a(I24
I84
I44
I104
I5
tp445
a(I40
I24
I56
I108
I3
tp446
a(I24
I8
I44
I24
I7
tp447
a(I20
I44
I44
I80
I0
tp448
a(I32
I64
I60
I116
I5
tp449
a(I28
I36
I60
I88
I9
tp450
a(I12
I8
I44
I68
I4
tp451
a(I12
I4
I56
I24
I6
tp452
a(I32
I24
I56
I76
I6
tp453
a(I40
I24
I56
I116
I6
tp454
a(I12
I80
I32
I96
I4
tp455
a(I12
I32
I52
I84
I1
tp456
a(I20
I40
I56
I80
I0
tp457
a(I20
I40
I52
I88
I5
tp458
a(I40
I24
I60
I120
I1
tp459
a(I24
I80
I44
I96
I3
tp460
a(I20
I28
I36
I84
I6
tp461
a(I36
I100
I56
I120
I1
tp462
a(I16
I52
I60
I108
I9
tp463
a(I12
I20
I48
I96
I4
tp464
a(I0
I16
I16
I36
I3
tp465
a(I16
I80
I44
I96
I9
tp466
a(I36
I64
I60
I96
I9
tp467
a(I4
I40
I52
I124
I6
tp468
a(I44
I20
I60
I64
I0
tp469
a(I20
I64
I36
I88
I5
tp470
a(I4
I12
I28
I120
I2
tp471
a(I16
I104
I44
I120
I7
tp472
a(I24
I76
I40
I100
I5
tp473
a(I16
I20
I52
I100
I5
tp474
a(I24
I100
I40
I120
I9
tp475
a(I0
I16
I48
I108
I3
tp476
a(I44
I52
I60
I108
I7
tp477
a(I32
I44
I52
I64
I3
tp478
a(I16
I56
I48
I76
I5
tp479
a(I40
I96
I56
I112
I7
tp480
a(I8
I76
I56
I96
I1
tp481
a(I8
I64
I36
I80
I1
tp482
a(I32
I24
I60
I40
I1
tp483
a(I0
I84
I28
I104
I5
tp484
a(I12
I24
I44
I64
I6
tp485
a(I0
I100
I16
I124
I9
tp486
a(I44
I8
I60
I112
I3
tp487
a(I16
I12
I52
I104
I3
tp488
a(I0
I80
I36
I108
I5
tp489
a(I20
I44
I52
I88
I3
tp490
a(I36
I68
I60
I92
I3
tp491
a(I16
I48
I48
I64
I4
tp492
a(I0
I80
I48
I100
I4
tp493
a(I32
I0
I48
I76
I1
tp494
a(I20
I76
I40
I124
I5
tp495
a(I0
I88
I28
I104
I7
tp496
a(I4
I92
I60
I124
I4
tp497
a(I36
I32
I60
I60
I8
tp498
a(I28
I100
I60
I120
I8
tp499
a(I4
I36
I56
I52
I2
tp500
a(I4
I16
I52
I60
I0
tp501
a(I4
I96
I56
I116
I1
tp502
a(I24
I92
I48
I120
I3
tp503
a(I0
I8
I20
I116
I1
tp504
a(I44
I88
I60
I104
I7
tp505
a(I16
I88
I44
I108
I8
tp506
a(I36
I88
I60
I116
I9
tp507
a(I16
I32
I40
I48
I1
tp508
a(I40
I76
I56
I100
I3
tp509
a(I36
I36
I56
I56
I1
tp510
a(I28
I108
I56
I124
I3
tp511
a(I24
I108
I52
I124
I1
tp512
a(I4
I28
I44
I44
I0
tp513
a(I4
I64
I56
I120
I2
tp514
a(I28
I68
I52
I112
I7
tp515
a(I12
I16
I36
I88
I4
tp516
a(I24
I8
I60
I24
I3
tp517
a(I16
I72
I56
I96
I7
tp518
a(I32
I40
I56
I104
I5
tp519
a(I36
I60
I60
I88
I2
tp520
a(I4
I104
I60
I120
I3
tp521
a(I32
I16
I60
I32
I2
tp522
a(I28
I44
I44
I92
I4
tp523
a(I24
I16
I60
I80
I0
tp524
a(I4
I16
I48
I100
I0
tp525
a(I36
I28
I60
I124
I0
tp526
a(I4
I80
I32
I96
I3
tp527
a(I28
I92
I56
I120
I4
tp528
a(I36
I80
I60
I104
I2
tp529
a(I16
I92
I60
I112
I6
tp530
a(I40
I36
I56
I108
I3
tp531
a(I24
I100
I44
I120
I7
tp532
a(I0
I20
I16
I108
I2
tp533
a(I36
I32
I52
I80
I3
tp534
a(I12
I16
I60
I44
I5
tp535
a(I36
I60
I60
I116
I8
tp536
a(I16
I84
I36
I112
I8
tp537
a(I20
I60
I40
I112
I9
tp538
a(I0
I108
I52
I124
I7
tp539
a(I40
I100
I60
I116
I2
tp540
a(I0
I108
I36
I124
I7
tp541
a(I8
I48
I32
I68
I7
tp542
a(I20
I48
I48
I124
I8
tp543
a(I0
I64
I40
I96
I2
tp544
a(I0
I4
I28
I100
I3
tp545
a(I40
I60
I60
I88
I0
tp546
a(I20
I88
I40
I116
I0
tp547
a(I32
I40
I48
I60
I0
tp548
a(I4
I56
I52
I92
I9
tp549
a(I40
I40
I56
I80
I9
tp550
a(I24
I68
I52
I100
I3
tp551
a(I0
I76
I56
I92
I9
tp552
a(I44
I88
I60
I120
I1
tp553
a(I24
I88
I52
I116
I3
tp554
a(I12
I100
I28
I120
I2
tp555
a(I44
I20
I60
I72
I9
tp556
a(I16
I0
I56
I96
I4
tp557
a(I8
I80
I40
I104
I6
tp558
a(I20
I76
I52
I116
I4
tp559
a(I24
I44
I44
I88
I9
tp560
a(I16
I44
I32
I64
I3
tp561
a(I36
I12
I56
I100
I1
tp562
a(I8
I24
I52
I116
I0
tp563
a(I4
I84
I52
I100
I8
tp564
a(I32
I32
I56
I76
I8
tp565
a(I44
I48
I60
I104
I9
tp566
a(I0
I20
I60
I120
I5
tp567
a(I8
I40
I36
I100
I0
tp568
a(I20
I52
I56
I92
I5
tp569
a(I20
I92
I48
I112
I8
tp570
a(I28
I108
I48
I124
I1
tp571
a(I8
I100
I36
I124
I9
tp572
a(I24
I52
I40
I104
I7
tp573
a(I16
I20
I52
I112
I3
tp574
a(I40
I12
I56
I52
I8
tp575
a(I36
I76
I52
I92
I0
tp576
a(I28
I24
I44
I80
I2
tp577
a(I24
I104
I60
I120
I8
tp578
a(I36
I52
I56
I116
I5
tp579
a(I12
I12
I32
I104
I2
tp580
a(I36
I8
I56
I92
I7
tp581
a(I44
I76
I60
I116
I5
tp582
a(I28
I104
I48
I124
I0
tp583
a(I20
I20
I56
I104
I5
tp584
a(I28
I16
I56
I52
I9
tp585
a(I16
I72
I32
I108
I4
tp586
a(I36
I40
I52
I56
I3
tp587
a(I12
I88
I56
I120
I7
tp588
a(I36
I44
I56
I60
I9
tp589
a(I20
I24
I44
I40
I9
tp590
a(I32
I96
I60
I116
I0
tp591
a(I36
I88
I52
I116
I9
tp592
a(I32
I60
I60
I112
I0
tp593
a(I20
I64
I56
I88
I3
tp594
a(I44
I4
I60
I60
I5
tp595
a(I16
I108
I40
I124
I8
tp596
a(I4
I68
I32
I100
I9
tp597
a(I0
I40
I20
I64
I1
tp598
a(I28
I104
I48
I120
I1
tp599
a(I24
I56
I52
I96
I9
tp600
a(I16
I100
I48
I124
I5
tp601
a(I36
I92
I52
I124
I6
tp602
a(I32
I80
I56
I100
I4
tp603
a(I36
I28
I52
I104
I7
tp604
a(I24
I48
I60
I84
I5
tp605
a(I4
I92
I60
I124
I9
tp606
a(I20
I52
I48
I116
I8
tp607
a(I8
I48
I32
I116
I3
tp608
a(I4
I12
I56
I80
I7
tp609
a(I24
I32
I52
I112
I8
tp610
a(I28
I8
I48
I80
I4
tp611
a(I16
I76
I52
I120
I7
tp612
a(I36
I52
I56
I104
I5
tp613
a(I16
I0
I32
I96
I7
tp614
a(I36
I20
I52
I92
I3
tp615
a(I24
I12
I56
I56
I9
tp616
a(I36
I4
I60
I28
I5
tp617
a(I4
I0
I32
I72
I8
tp618
a(I16
I48
I52
I64
I2
tp619
a(I8
I104
I56
I120
I1
tp620
a(I40
I76
I60
I108
I0
tp621
a(I24
I48
I44
I100
I6
tp622
a(I40
I84
I60
I120
I5
tp623
a(I16
I92
I52
I112
I3
tp624
a(I44
I20
I60
I72
I7
tp625
a(I40
I84
I60
I108
I6
tp626
a(I28
I32
I44
I60
I6
tp627
a(I4
I72
I24
I124
I2
tp628
a(I16
I72
I36
I100
I5
tp629
a(I36
I84
I52
I108
I9
tp630
a(I40
I76
I60
I108
I9
tp631
a(I28
I60
I60
I88
I1
tp632
a(I36
I4
I52
I56
I6
tp633
a(I4
I96
I60
I112
I2
tp634
a(I32
I96
I60
I124
I6
tp635
a(I44
I68
I60
I104
I8
tp636
a(I20
I20
I48
I84
I6
tp637
a(I4
I4
I32
I120
I9
tp638
a(I40
I24
I60
I60
I7
tp639
a(I24
I76
I44
I92
I3
tp640
a(I4
I28
I60
I44
I4
tp641
a(I16
I12
I56
I88
I8
tp642
a(I24
I24
I52
I44
I8
tp643
a(I8
I16
I48
I72
I6
tp644
a(I28
I68
I48
I92
I7
tp645
a(I20
I80
I44
I100
I5
tp646
a(I28
I28
I52
I80
I5
tp647
a(I24
I76
I60
I108
I8
tp648
a(I16
I36
I52
I104
I6
tp649
a(I36
I48
I52
I88
I4
tp650
a(I8
I72
I28
I104
I9
tp651
a(I40
I36
I60
I108
I9
tp652
a(I0
I20
I44
I96
I9
tp653
a(I0
I44
I56
I76
I7
tp654
a(I12
I32
I56
I116
I5
tp655
a(I0
I84
I56
I100
I2
tp656
a(I4
I84
I36
I100
I6
tp657
a(I24
I84
I52
I124
I0
tp658
a(I12
I4
I28
I24
I0
tp659
a(I28
I48
I52
I100
I2
tp660
a(I4
I100
I48
I120
I6
tp661
a(I16
I40
I52
I104
I6
tp662
a(I12
I52
I28
I88
I0
tp663
a(I16
I88
I36
I104
I1
tp664
a(I36
I4
I52
I108
I3
tp665
a(I0
I28
I32
I88
I0
tp666
a(I8
I68
I48
I96
I0
tp667
a(I0
I88
I28
I112
I4
tp668
a(I32
I104
I48
I124
I4
tp669
a(I36
I48
I56
I124
I7
tp670
a(I8
I0
I32
I32
I0
tp671
a(I24
I84
I48
I116
I9
tp672
a(I8
I96
I28
I112
I7
tp673
a(I20
I24
I44
I88
I3
tp674
a(I20
I88
I52
I104
I2
tp675
a(I12
I40
I44
I104
I5
tp676
a(I40
I76
I60
I108
I5
tp677
a(I32
I104
I60
I124
I4
tp678
a(I0
I64
I20
I120
I7
tp679
a(I36
I20
I56
I100
I0
tp680
a(I0
I60
I36
I80
I5
tp681
a(I4
I56
I48
I104
I9
tp682
a(I0
I92
I40
I124
I2
tp683
a(I4
I12
I20
I72
I8
tp684
a(I40
I56
I60
I88
I6
tp685
a(I40
I28
I60
I64
I8
tp686
a(I36
I64
I60
I92
I9
tp687
a(I40
I12
I60
I84
I9
tp688
a(I0
I72
I24
I100
I9
tp689
a(I32
I72
I60
I124
I6
tp690
a(I44
I88
I60
I116
I9
tp691
a(I36
I48
I56
I120
I4
tp692
a(I28
I100
I60
I120
I3
tp693
a(I32
I44
I60
I72
I8
tp694
a(I32
I36
I52
I104
I9
tp695
a(I12
I20
I36
I68
I8
tp696
a(I4
I8
I20
I76
I1
tp697
a(I40
I80
I56
I100
I6
tp698
a(I28
I52
I44
I108
I1
tp699
a(I36
I108
I56
I124
I0
tp700
a(I28
I0
I44
I88
I7
tp701
a(I36
I16
I52
I108
I2
tp702
a(I4
I24
I48
I92
I4
tp703
a(I0
I88
I56
I120
I0
tp704
a(I44
I108
I60
I124
I5
tp705
a(I0
I28
I56
I72
I8
tp706
a(I8
I20
I52
I92
I3
tp707
a(I40
I76
I60
I96
I0
tp708
a(I28
I60
I60
I96
I4
tp709
a(I40
I36
I60
I72
I1
tp710
a(I44
I0
I60
I120
I8
tp711
a(I16
I0
I48
I76
I6
tp712
a(I40
I96
I60
I120
I8
tp713
a(I44
I0
I60
I24
I8
tp714
a(I16
I48
I40
I124
I8
tp715
a(I40
I80
I60
I96
I2
tp716
a(I24
I88
I44
I120
I4
tp717
a(I12
I0
I56
I64
I0
tp718
a(I4
I52
I56
I84
I5
tp719
a(I44
I20
I60
I44
I0
tp720
a(I28
I28
I60
I108
I3
tp721
a(I36
I24
I60
I88
I9
tp722
a(I40
I32
I60
I116
I1
tp723
a(I44
I64
I60
I116
I9
tp724
a(I0
I48
I44
I64
I3
tp725
a(I36
I32
I60
I60
I7
tp726
a(I12
I60
I36
I120
I2
tp727
a(I16
I64
I40
I124
I8
tp728
a(I36
I56
I56
I100
I5
tp729
a(I32
I68
I48
I84
I5
tp730
a(I0
I72
I28
I112
I5
tp731
a(I8
I100
I44
I120
I3
tp732
a(I40
I92
I60
I108
I7
tp733
a(I24
I64
I56
I100
I2
tp734
a(I28
I40
I56
I84
I6
tp735
a(I28
I4
I60
I32
I6
tp736
a(I32
I4
I48
I20
I4
tp737
a(I36
I100
I60
I116
I3
tp738
a(I20
I16
I36
I100
I5
tp739
a(I16
I108
I44
I124
I5
tp740
a(I44
I100
I60
I116
I4
tp741
a(I0
I84
I52
I112
I2
tp742
a(I16
I4
I56
I44
I0
tp743
a(I16
I48
I56
I112
I9
tp744
a(I24
I108
I52
I124
I8
tp745
a(I36
I12
I52
I100
I3
tp746
a(I8
I52
I52
I100
I0
tp747
a(I8
I32
I32
I72
I5
tp748
a(I16
I52
I52
I80
I0
tp749
a(I32
I52
I56
I124
I9
tp750
a(I0
I24
I36
I108
I2
tp751
a(I20
I88
I56
I116
I9
tp752
a(I36
I0
I60
I64
I8
tp753
a(I20
I28
I56
I124
I5
tp754
a(I24
I20
I40
I88
I0
tp755
a(I20
I32
I60
I68
I8
tp756
a(I24
I72
I52
I116
I1
tp757
a(I16
I68
I52
I88
I5
tp758
a(I20
I72
I36
I124
I5
tp759
a(I24
I100
I44
I116
I4
tp760
a(I20
I76
I36
I112
I8
tp761
a(I4
I88
I40
I124
I1
tp762
a(I44
I24
I60
I76
I1
tp763
a(I16
I36
I32
I76
I4
tp764
a(I0
I96
I48
I120
I5
tp765
a(I4
I100
I20
I124
I7
tp766
a(I0
I0
I20
I36
I6
tp767
a(I40
I80
I56
I100
I5
tp768
a(I4
I80
I24
I112
I3
tp769
a(I12
I8
I60
I88
I2
tp770
a(I0
I92
I40
I120
I5
tp771
a(I8
I28
I40
I60
I8
tp772
a(I36
I56
I60
I124
I4
tp773
a(I0
I80
I52
I104
I9
tp774
a(I16
I16
I44
I40
I8
tp775
a(I28
I12
I56
I80
I2
tp776
a(I36
I68
I56
I124
I8
tp777
a(I28
I76
I48
I104
I4
tp778
a(I36
I80
I60
I116
I4
tp779
a(I40
I96
I56
I120
I4
tp780
a(I40
I76
I56
I120
I0
tp781
a(I20
I40
I40
I116
I6
tp782
a(I8
I48
I32
I112
I2
tp783
a(I28
I56
I56
I116
I9
tp784
a(I32
I52
I52
I124
I3
tp785
a(I44
I8
I60
I52
I4
tp786
a(I36
I84
I52
I104
I9
tp787
a(I16
I4
I60
I24
I5
tp788
a(I20
I40
I36
I100
I4
tp789
a(I44
I100
I60
I120
I5
tp790
a(I8
I32
I24
I116
I1
tp791
a(I0
I64
I36
I112
I9
tp792
a(I12
I0
I36
I40
I2
tp793
a(I20
I52
I48
I116
I2
tp794
a(I36
I92
I60
I112
I9
tp795
a(I28
I0
I56
I80
I7
tp796
a(I16
I92
I52
I112
I6
tp797
a(I28
I44
I44
I88
I7
tp798
a(I40
I108
I56
I124
I5
tp799
a(I28
I108
I44
I124
I1
tp800
a(I8
I96
I40
I124
I9
tp801
a(I0
I32
I28
I60
I5
tp802
a(I32
I52
I60
I120
I2
tp803
a(I4
I76
I44
I96
I6
tp804
a(I24
I24
I60
I84
I1
tp805
a(I24
I76
I60
I112
I9
tp806
a(I0
I52
I36
I100
I9
tp807
a(I32
I60
I60
I80
I1
tp808
a(I8
I48
I52
I112
I8
tp809
a(I0
I72
I44
I104
I2
tp810
a(I28
I92
I56
I120
I1
tp811
a(I12
I68
I56
I108
I3
tp812
a(I28
I48
I60
I124
I3
tp813
a(I44
I96
I60
I112
I1
tp814
a(I4
I60
I24
I124
I5
tp815
a(I36
I0
I52
I92
I0
tp816
a(I8
I104
I24
I120
I8
tp817
a(I32
I12
I52
I88
I6
tp818
a(I36
I16
I56
I84
I9
tp819
a(I24
I44
I44
I60
I3
tp820
a(I36
I56
I60
I120
I7
tp821
a(I16
I60
I36
I124
I7
tp822
a(I16
I44
I52
I112
I0
tp823
a(I20
I60
I52
I76
I6
tp824
a(I4
I24
I20
I88
I9
tp825
a(I4
I8
I52
I108
I1
tp826
a(I40
I16
I60
I40
I3
tp827
a(I40
I100
I60
I120
I4
tp828
a(I28
I88
I56
I104
I0
tp829
a(I32
I108
I56
I124
I9
tp830
a(I8
I48
I44
I112
I2
tp831
a(I32
I64
I60
I84
I8
tp832
a(I28
I28
I60
I56
I7
tp833
a(I24
I100
I56
I120
I2
tp834
a(I8
I40
I56
I96
I4
tp835
a(I0
I60
I20
I116
I2
tp836
a(I12
I104
I44
I120
I2
tp837
a(I44
I20
I60
I124
I6
tp838
a(I36
I20
I56
I80
I9
tp839
a(I40
I28
I60
I124
I9
tp840
a(I4
I0
I52
I92
I8
tp841
a(I16
I64
I60
I120
I9
tp842
a(I0
I20
I36
I88
I3
tp843
a(I32
I100
I60
I120
I9
tp844
a(I20
I92
I40
I120
I4
tp845
a(I36
I68
I52
I96
I0
tp846
a(I12
I40
I48
I72
I6
tp847
a(I24
I72
I52
I100
I0
tp848
a(I40
I36
I60
I64
I5
tp849
a(I40
I108
I56
I124
I4
tp850
a(I4
I92
I56
I108
I7
tp851
a(I44
I100
I60
I120
I0
tp852
a(I32
I24
I48
I80
I3
tp853
a(I16
I72
I48
I124
I6
tp854
a(I36
I80
I60
I96
I2
tp855
a(I16
I40
I36
I84
I2
tp856
a(I44
I40
I60
I112
I5
tp857
a(I36
I76
I56
I112
I2
tp858
a(I20
I84
I48
I120
I1
tp859
a(I8
I84
I40
I100
I1
tp860
a(I40
I16
I60
I36
I9
tp861
a(I32
I92
I56
I112
I6
tp862
a(I12
I84
I56
I120
I9
tp863
a(I44
I100
I60
I120
I9
tp864
a(I40
I80
I60
I108
I1
tp865
a(I36
I32
I60
I80
I4
tp866
a(I24
I76
I52
I96
I7
tp867
a(I4
I52
I20
I120
I6
tp868
a(I16
I12
I40
I28
I0
tp869
a(I28
I20
I56
I116
I3
tp870
a(I0
I68
I44
I104
I7
tp871
a(I16
I64
I36
I108
I3
tp872
a(I32
I104
I60
I120
I6
tp873
a(I4
I48
I48
I84
I5
tp874
a(I40
I20
I56
I84
I8
tp875
a(I0
I56
I44
I104
I9
tp876
a(I8
I20
I60
I36
I1
tp877
a(I16
I80
I32
I112
I4
tp878
a(I12
I80
I32
I124
I2
tp879
a(I40
I20
I56
I52
I3
tp880
a(I16
I24
I60
I76
I3
tp881
a(I16
I12
I48
I76
I0
tp882
a(I36
I0
I56
I48
I6
tp883
a(I28
I20
I44
I68
I1
tp884
a(I24
I104
I40
I124
I2
tp885
a(I40
I0
I60
I124
I4
tp886
a(I32
I64
I60
I100
I6
tp887
a(I20
I52
I48
I84
I6
tp888
a(I8
I80
I36
I116
I9
tp889
a(I0
I72
I20
I96
I4
tp890
a(I16
I92
I56
I108
I6
tp891
a(I8
I108
I28
I124
I4
tp892
a(I24
I92
I52
I124
I6
tp893
a(I16
I72
I32
I108
I8
tp894
a(I20
I20
I56
I104
I8
tp895
a(I8
I24
I52
I100
I0
tp896
a(I16
I12
I40
I68
I0
tp897
a(I28
I64
I44
I120
I5
tp898
a(I12
I16
I32
I88
I0
tp899
a(I40
I44
I60
I68
I4
tp900
a(I12
I32
I52
I108
I3
tp901
a(I36
I44
I60
I88
I9
tp902
a(I24
I104
I44
I124
I7
tp903
a(I16
I32
I52
I116
I8
tp904
a(I44
I80
I60
I104
I4
tp905
a(I40
I88
I56
I112
I3
tp906
a(I28
I100
I44
I124
I9
tp907
a(I8
I40
I56
I124
I5
tp908
a(I16
I72
I44
I96
I0
tp909
a(I8
I48
I44
I92
I5
tp910
a(I0
I4
I24
I56
I9
tp911
a(I16
I8
I52
I92
I4
tp912
a(I16
I52
I40
I76
I8
tp913
a(I36
I84
I60
I100
I6
tp914
a(I44
I4
I60
I28
I3
tp915
a(I40
I76
I60
I124
I1
tp916
a(I24
I80
I44
I112
I2
tp917
a(I16
I8
I40
I112
I8
tp918
a(I40
I24
I60
I108
I7
tp919
a(I4
I56
I48
I76
I9
tp920
a(I24
I72
I52
I112
I5
tp921
a(I44
I44
I60
I76
I2
tp922
a(I28
I104
I56
I124
I8
tp923
a(I8
I68
I44
I112
I6
tp924
a(I24
I0
I40
I52
I5
tp925
a(I12
I76
I60
I100
I8
tp926
a(I12
I52
I52
I80
I2
tp927
a(I40
I52
I56
I124
I4
tp928
a(I36
I4
I60
I48
I1
tp929
a(I4
I48
I48
I68
I5
tp930
a(I36
I100
I52
I120
I6
tp931
a(I0
I68
I36
I84
I4
tp932
a(I8
I100
I24
I116
I1
tp933
a(I36
I36
I60
I72
I9
tp934
a(I36
I52
I56
I96
I6
tp935
a(I4
I28
I44
I88
I6
tp936
a(I36
I100
I56
I116
I9
tp937
a(I20
I76
I40
I124
I4
tp938
a(I8
I12
I24
I52
I6
tp939
a(I36
I84
I56
I120
I4
tp940
a(I8
I88
I44
I124
I5
tp941
a(I44
I16
I60
I96
I1
tp942
a(I4
I96
I32
I116
I5
tp943
a(I20
I80
I44
I116
I1
tp944
a(I0
I36
I52
I92
I2
tp945
a(I44
I68
I60
I108
I0
tp946
a(I24
I100
I60
I120
I2
tp947
a(I32
I48
I48
I68
I2
tp948
a(I16
I36
I32
I88
I7
tp949
a(I8
I84
I44
I124
I7
tp950
a(I12
I64
I44
I108
I5
tp951
a(I28
I96
I44
I120
I9
tp952
a(I32
I108
I56
I124
I7
tp953
a(I40
I100
I60
I124
I5
tp954
a(I8
I20
I32
I96
I6
tp955
a(I20
I64
I56
I116
I3
tp956
a(I32
I44
I52
I96
I1
tp957
a(I20
I88
I40
I108
I8
tp958
a(I4
I80
I44
I112
I4
tp959
a(I12
I68
I36
I108
I7
tp960
a(I28
I24
I44
I60
I9
tp961
a(I44
I44
I60
I84
I9
tp962
a(I16
I88
I56
I116
I3
tp963
a(I16
I16
I32
I72
I3
tp964
a(I16
I12
I32
I80
I1
tp965
a(I4
I40
I48
I68
I1
tp966
a(I36
I48
I60
I84
I1
tp967
a(I40
I4
I56
I48
I5
tp968
a(I4
I4
I60
I32
I7
tp969
a(I0
I80
I52
I100
I4
tp970
a(I36
I48
I52
I112
I6
tp971
a(I36
I80
I56
I124
I0
tp972
a(I0
I84
I24
I100
I7
tp973
a(I20
I12
I56
I28
I6
tp974
a(I32
I44
I60
I88
I2
tp975
a(I16
I96
I48
I112
I1
tp976
a(I4
I64
I20
I104
I2
tp977
a(I32
I4
I52
I52
I8
tp978
a(I36
I0
I56
I64
I1
tp979
a(I28
I60
I48
I88
I9
tp980
a(I28
I56
I60
I104
I8
tp981
a(I28
I40
I56
I92
I5
tp982
a(I8
I16
I48
I60
I4
tp983
a(I16
I0
I44
I56
I0
tp984
a(I44
I28
I60
I64
I5
tp985
a(I4
I64
I44
I92
I2
tp986
a(I28
I36
I48
I84
I4
tp987
a(I44
I12
I60
I76
I8
tp988
a(I20
I80
I52
I112
I2
tp989
a(I24
I88
I56
I104
I4
tp990
a(I4
I60
I36
I88
I1
tp991
a(I32
I0
I52
I88
I7
tp992
a(I0
I8
I44
I68
I7
tp993
a(I28
I92
I60
I120
I3
tp994
a(I4
I108
I32
I124
I4
tp995
a(I20
I4
I48
I64
I2
tp996
a(I36
I68
I60
I100
I6
tp997
a(I20
I48
I60
I124
I2
tp998
a(I28
I72
I44
I96
I7
tp999
a(I44
I76
I60
I112
I5
tp1000
a.